(dp0
I1
(dp1
S'trial_num_in_expt'
p2
I1
sS'blocking_type'
p3
S'pure'
p4
sS'number_of_blocks'
p5
I2
sS'trial_def_xlsx'
p6
S'2_battery_20_trials.xlsx'
p7
sS'trial_name'
p8
VLeftcluster 5
p9
sS'contingency_mode'
p10
S'gaze'
p11
sS'fruit_tally'
p12
I10
sS'calibration_type'
p13
S'HV9'
p14
sS'results_directory'
p15
S'results\\P035'
p16
sS'samples'
p17
(dp18
I1
(dp19
S'tile_centre_x'
p20
I-60
sS'tile_centre_y'
p21
I0
sS'psychopy_x'
p22
I-4
sS'psychopy_y'
p23
I-5
sS'hit_tile'
p24
I71
sg8
g9
sS'trial_index'
p25
I1
sg12
I0
sS'sample_timestamp'
p26
F108.7344222937395
sS'hit_flag'
p27
I0
sS'sample_index'
p28
I1
ssI2
(dp29
g20
I-60
sg21
I0
sg22
I-2
sg23
I-2
sg24
I71
sg8
g9
sg25
I1
sg12
I0
sg26
F108.87591997359505
sg27
I0
sg28
I2
ssI3
(dp30
g20
I-60
sg21
I0
sg22
I-1
sg23
I-4
sg24
I71
sg8
g9
sg25
I1
sg12
I0
sg26
F108.9676016649073
sg27
I0
sg28
I3
ssI4
(dp31
g20
I-180
sg21
I120
sg22
I-212
sg23
I108
sg24
I54
sg8
g9
sg25
I1
sg12
I0
sg26
F109.059337920286
sg27
I0
sg28
I4
ssI5
(dp32
g20
I-180
sg21
I120
sg22
I-209
sg23
I107
sg24
I54
sg8
g9
sg25
I1
sg12
I0
sg26
F109.14269976306514
sg27
I0
sg28
I5
ssI6
(dp33
g20
I-300
sg21
I120
sg22
I-279
sg23
I125
sg24
I53
sg8
g9
sg25
I1
sg12
I1
sg26
F109.2259123078461
sg27
I2
sg28
I6
ssI7
(dp34
g20
I-300
sg21
I120
sg22
I-282
sg23
I130
sg24
I53
sg8
g9
sg25
I1
sg12
I1
sg26
F109.46765087299173
sg27
I3
sg28
I7
ssI8
(dp35
g20
I-300
sg21
I120
sg22
I-285
sg23
I129
sg24
I53
sg8
g9
sg25
I1
sg12
I1
sg26
F109.62588264909573
sg27
I3
sg28
I8
ssI9
(dp36
g20
I-300
sg21
I120
sg22
I-284
sg23
I130
sg24
I53
sg8
g9
sg25
I1
sg12
I1
sg26
F109.78426271895114
sg27
I3
sg28
I9
ssI10
(dp37
g20
I-540
sg21
I120
sg22
I-518
sg23
I158
sg24
I51
sg8
g9
sg25
I1
sg12
I2
sg26
F109.94246035066953
sg27
I2
sg28
I10
ssI11
(dp38
g20
I-540
sg21
I120
sg22
I-560
sg23
I131
sg24
I51
sg8
g9
sg25
I1
sg12
I2
sg26
F110.19249667092254
sg27
I3
sg28
I11
ssI12
(dp39
g20
I-540
sg21
I120
sg22
I-557
sg23
I130
sg24
I51
sg8
g9
sg25
I1
sg12
I2
sg26
F110.36747158149456
sg27
I3
sg28
I12
ssI13
(dp40
g20
I-540
sg21
I120
sg22
I-557
sg23
I127
sg24
I51
sg8
g9
sg25
I1
sg12
I2
sg26
F110.52592429185552
sg27
I3
sg28
I13
ssI14
(dp41
g20
I-660
sg21
I0
sg22
I-663
sg23
I-36
sg24
I66
sg8
g9
sg25
I1
sg12
I2
sg26
F110.70091024914018
sg27
I0
sg28
I14
ssI15
(dp42
g20
I-660
sg21
I0
sg22
I-663
sg23
I-37
sg24
I66
sg8
g9
sg25
I1
sg12
I2
sg26
F110.78409969624909
sg27
I0
sg28
I15
ssI16
(dp43
g20
I-660
sg21
I0
sg22
I-660
sg23
I-42
sg24
I66
sg8
g9
sg25
I1
sg12
I2
sg26
F110.87571142504612
sg27
I0
sg28
I16
ssI17
(dp44
g20
I-660
sg21
I0
sg22
I-661
sg23
I-44
sg24
I66
sg8
g9
sg25
I1
sg12
I2
sg26
F110.96728934420707
sg27
I0
sg28
I17
ssI18
(dp45
g20
I-660
sg21
I0
sg22
I-661
sg23
I-46
sg24
I66
sg8
g9
sg25
I1
sg12
I2
sg26
F111.05077839155865
sg27
I0
sg28
I18
ssI19
(dp46
g20
I-660
sg21
I0
sg22
I-661
sg23
I-45
sg24
I66
sg8
g9
sg25
I1
sg12
I2
sg26
F111.13400566529026
sg27
I0
sg28
I19
ssI20
(dp47
g20
I-660
sg21
I0
sg22
I-660
sg23
I-46
sg24
I66
sg8
g9
sg25
I1
sg12
I2
sg26
F111.22560065664356
sg27
I0
sg28
I20
ssI21
(dp48
g20
I-660
sg21
I0
sg22
I-661
sg23
I-46
sg24
I66
sg8
g9
sg25
I1
sg12
I2
sg26
F111.31724552557944
sg27
I0
sg28
I21
ssI22
(dp49
g20
I-900
sg21
I0
sg22
I-862
sg23
I12
sg24
I64
sg8
g9
sg25
I1
sg12
I3
sg26
F111.40070143279218
sg27
I2
sg28
I22
ssI23
(dp50
g20
I-900
sg21
I0
sg22
I-860
sg23
I7
sg24
I64
sg8
g9
sg25
I1
sg12
I3
sg26
F111.65073976153872
sg27
I3
sg28
I23
ssI24
(dp51
g20
I-900
sg21
I240
sg22
I-897
sg23
I242
sg24
I32
sg8
g9
sg25
I1
sg12
I4
sg26
F111.8092209255542
sg27
I2
sg28
I24
ssI25
(dp52
g20
I-900
sg21
I240
sg22
I-909
sg23
I269
sg24
I32
sg8
g9
sg25
I1
sg12
I4
sg26
F112.05069570858677
sg27
I3
sg28
I25
ssI26
(dp53
g20
I-900
sg21
I240
sg22
I-909
sg23
I271
sg24
I32
sg8
g9
sg25
I1
sg12
I4
sg26
F112.20888262834114
sg27
I3
sg28
I26
ssI27
(dp54
g20
I-900
sg21
I480
sg22
I-896
sg23
I491
sg24
I0
sg8
g9
sg25
I1
sg12
I5
sg26
F112.36720244339904
sg27
I2
sg28
I27
ssI28
(dp55
g20
I-900
sg21
I480
sg22
I-900
sg23
I495
sg24
I0
sg8
g9
sg25
I1
sg12
I5
sg26
F112.60904846293397
sg27
I3
sg28
I28
ssI29
(dp56
g20
I-660
sg21
I480
sg22
I-668
sg23
I437
sg24
I2
sg8
g9
sg25
I1
sg12
I5
sg26
F112.76720190780088
sg27
I0
sg28
I29
ssI30
(dp57
g20
I-660
sg21
I480
sg22
I-668
sg23
I436
sg24
I2
sg8
g9
sg25
I1
sg12
I5
sg26
F112.85055705560262
sg27
I0
sg28
I30
ssI31
(dp58
g20
I-660
sg21
I480
sg22
I-666
sg23
I432
sg24
I2
sg8
g9
sg25
I1
sg12
I5
sg26
F112.93389780920279
sg27
I0
sg28
I31
ssI32
(dp59
g20
I-660
sg21
I480
sg22
I-663
sg23
I429
sg24
I2
sg8
g9
sg25
I1
sg12
I5
sg26
F113.01704809069315
sg27
I0
sg28
I32
ssI33
(dp60
g20
I-660
sg21
I480
sg22
I-662
sg23
I426
sg24
I2
sg8
g9
sg25
I1
sg12
I5
sg26
F113.10044842959269
sg27
I0
sg28
I33
ssI34
(dp61
g20
I-660
sg21
I480
sg22
I-660
sg23
I425
sg24
I2
sg8
g9
sg25
I1
sg12
I5
sg26
F113.18389898082387
sg27
I0
sg28
I34
ssI35
(dp62
g20
I-420
sg21
I480
sg22
I-436
sg23
I421
sg24
I4
sg8
g9
sg25
I1
sg12
I5
sg26
F113.26707269473536
sg27
I0
sg28
I35
ssI36
(dp63
g20
I-420
sg21
I360
sg22
I-436
sg23
I415
sg24
I20
sg8
g9
sg25
I1
sg12
I6
sg26
F113.3587808312086
sg27
I2
sg28
I36
ssI37
(dp64
g20
I-420
sg21
I360
sg22
I-435
sg23
I419
sg24
I20
sg8
g9
sg25
I1
sg12
I6
sg26
F113.60874986693761
sg27
I3
sg28
I37
ssI38
(dp65
g20
I-300
sg21
I480
sg22
I-254
sg23
I509
sg24
I5
sg8
g9
sg25
I1
sg12
I6
sg26
F113.76701913491524
sg27
I0
sg28
I38
ssI39
(dp66
g20
I-180
sg21
I480
sg22
I-199
sg23
I519
sg24
I6
sg8
g9
sg25
I1
sg12
I7
sg26
F113.85867203782436
sg27
I2
sg28
I39
ssI40
(dp67
g20
I-180
sg21
I480
sg22
I-196
sg23
I516
sg24
I6
sg8
g9
sg25
I1
sg12
I7
sg26
F114.11703958807175
sg27
I3
sg28
I40
ssI41
(dp68
g20
I-300
sg21
I120
sg22
I-259
sg23
I118
sg24
I53
sg8
g9
sg25
I1
sg12
I7
sg26
F114.28383022340495
sg27
I3
sg28
I41
ssI42
(dp69
g20
I-300
sg21
I120
sg22
I-304
sg23
I107
sg24
I53
sg8
g9
sg25
I1
sg12
I7
sg26
F114.45868462438193
sg27
I3
sg28
I42
ssI43
(dp70
g20
I-300
sg21
I120
sg22
I-306
sg23
I112
sg24
I53
sg8
g9
sg25
I1
sg12
I7
sg26
F114.62541433541992
sg27
I3
sg28
I43
ssI44
(dp71
g20
I-60
sg21
I240
sg22
I-62
sg23
I241
sg24
I39
sg8
g9
sg25
I1
sg12
I8
sg26
F114.79189465854643
sg27
I2
sg28
I44
ssI45
(dp72
g20
I-60
sg21
I240
sg22
I-61
sg23
I236
sg24
I39
sg8
g9
sg25
I1
sg12
I8
sg26
F115.04194872048947
sg27
I3
sg28
I45
ssI46
(dp73
g20
I60
sg21
I360
sg22
I52
sg23
I360
sg24
I24
sg8
g9
sg25
I1
sg12
I8
sg26
F115.20855624818842
sg27
I1
sg28
I46
ssI47
(dp74
g20
I60
sg21
I360
sg22
I50
sg23
I361
sg24
I24
sg8
g9
sg25
I1
sg12
I8
sg26
F115.37530872214984
sg27
I1
sg28
I47
ssI48
(dp75
g20
I60
sg21
I360
sg22
I52
sg23
I362
sg24
I24
sg8
g9
sg25
I1
sg12
I8
sg26
F115.54183791861215
sg27
I1
sg28
I48
ssI49
(dp76
g20
I-180
sg21
I0
sg22
I-127
sg23
I24
sg24
I70
sg8
g9
sg25
I1
sg12
I8
sg26
F115.70018886531534
sg27
I0
sg28
I49
ssI50
(dp77
g20
I-180
sg21
I-120
sg22
I-133
sg23
I-118
sg24
I86
sg8
g9
sg25
I1
sg12
I9
sg26
F115.79194420137992
sg27
I2
sg28
I50
ssI51
(dp78
g20
I-180
sg21
I-120
sg22
I-182
sg23
I-137
sg24
I86
sg8
g9
sg25
I1
sg12
I9
sg26
F116.03351304884609
sg27
I3
sg28
I51
ssI52
(dp79
g20
I-180
sg21
I-360
sg22
I-214
sg23
I-366
sg24
I118
sg8
g9
sg25
I1
sg12
I10
sg26
F116.20008743640619
sg27
I2
sg28
I52
sssS'participant_number'
p80
I35
sS'screen_width'
p81
I1920
sS'bg_name'
p82
S'trial01.png'
p83
sS'mapping'
p84
VLeftcluster 5->trial01.png
p85
sS'bg_path'
p86
S'results\\P035\\trial_png\\trial01.png'
p87
sS'tile_centres'
p88
(lp89
(F-900.0
F480.0
tp90
a(F-780.0
F480.0
tp91
a(F-660.0
F480.0
tp92
a(F-540.0
F480.0
tp93
a(F-420.0
F480.0
tp94
a(F-300.0
F480.0
tp95
a(F-180.0
F480.0
tp96
a(F-60.0
F480.0
tp97
a(F60.0
F480.0
tp98
a(F180.0
F480.0
tp99
a(F300.0
F480.0
tp100
a(F420.0
F480.0
tp101
a(F540.0
F480.0
tp102
a(F660.0
F480.0
tp103
a(F780.0
F480.0
tp104
a(F900.0
F480.0
tp105
a(F-900.0
F360.0
tp106
a(F-780.0
F360.0
tp107
a(F-660.0
F360.0
tp108
a(F-540.0
F360.0
tp109
a(F-420.0
F360.0
tp110
a(F-300.0
F360.0
tp111
a(F-180.0
F360.0
tp112
a(F-60.0
F360.0
tp113
a(F60.0
F360.0
tp114
a(F180.0
F360.0
tp115
a(F300.0
F360.0
tp116
a(F420.0
F360.0
tp117
a(F540.0
F360.0
tp118
a(F660.0
F360.0
tp119
a(F780.0
F360.0
tp120
a(F900.0
F360.0
tp121
a(F-900.0
F240.0
tp122
a(F-780.0
F240.0
tp123
a(F-660.0
F240.0
tp124
a(F-540.0
F240.0
tp125
a(F-420.0
F240.0
tp126
a(F-300.0
F240.0
tp127
a(F-180.0
F240.0
tp128
a(F-60.0
F240.0
tp129
a(F60.0
F240.0
tp130
a(F180.0
F240.0
tp131
a(F300.0
F240.0
tp132
a(F420.0
F240.0
tp133
a(F540.0
F240.0
tp134
a(F660.0
F240.0
tp135
a(F780.0
F240.0
tp136
a(F900.0
F240.0
tp137
a(F-900.0
F120.0
tp138
a(F-780.0
F120.0
tp139
a(F-660.0
F120.0
tp140
a(F-540.0
F120.0
tp141
a(F-420.0
F120.0
tp142
a(F-300.0
F120.0
tp143
a(F-180.0
F120.0
tp144
a(F-60.0
F120.0
tp145
a(F60.0
F120.0
tp146
a(F180.0
F120.0
tp147
a(F300.0
F120.0
tp148
a(F420.0
F120.0
tp149
a(F540.0
F120.0
tp150
a(F660.0
F120.0
tp151
a(F780.0
F120.0
tp152
a(F900.0
F120.0
tp153
a(F-900.0
F-0.0
tp154
a(F-780.0
F-0.0
tp155
a(F-660.0
F-0.0
tp156
a(F-540.0
F-0.0
tp157
a(F-420.0
F-0.0
tp158
a(F-300.0
F-0.0
tp159
a(F-180.0
F-0.0
tp160
a(F-60.0
F-0.0
tp161
a(F60.0
F-0.0
tp162
a(F180.0
F-0.0
tp163
a(F300.0
F-0.0
tp164
a(F420.0
F-0.0
tp165
a(F540.0
F-0.0
tp166
a(F660.0
F-0.0
tp167
a(F780.0
F-0.0
tp168
a(F900.0
F-0.0
tp169
a(F-900.0
F-120.0
tp170
a(F-780.0
F-120.0
tp171
a(F-660.0
F-120.0
tp172
a(F-540.0
F-120.0
tp173
a(F-420.0
F-120.0
tp174
a(F-300.0
F-120.0
tp175
a(F-180.0
F-120.0
tp176
a(F-60.0
F-120.0
tp177
a(F60.0
F-120.0
tp178
a(F180.0
F-120.0
tp179
a(F300.0
F-120.0
tp180
a(F420.0
F-120.0
tp181
a(F540.0
F-120.0
tp182
a(F660.0
F-120.0
tp183
a(F780.0
F-120.0
tp184
a(F900.0
F-120.0
tp185
a(F-900.0
F-240.0
tp186
a(F-780.0
F-240.0
tp187
a(F-660.0
F-240.0
tp188
a(F-540.0
F-240.0
tp189
a(F-420.0
F-240.0
tp190
a(F-300.0
F-240.0
tp191
a(F-180.0
F-240.0
tp192
a(F-60.0
F-240.0
tp193
a(F60.0
F-240.0
tp194
a(F180.0
F-240.0
tp195
a(F300.0
F-240.0
tp196
a(F420.0
F-240.0
tp197
a(F540.0
F-240.0
tp198
a(F660.0
F-240.0
tp199
a(F780.0
F-240.0
tp200
a(F900.0
F-240.0
tp201
a(F-900.0
F-360.0
tp202
a(F-780.0
F-360.0
tp203
a(F-660.0
F-360.0
tp204
a(F-540.0
F-360.0
tp205
a(F-420.0
F-360.0
tp206
a(F-300.0
F-360.0
tp207
a(F-180.0
F-360.0
tp208
a(F-60.0
F-360.0
tp209
a(F60.0
F-360.0
tp210
a(F180.0
F-360.0
tp211
a(F300.0
F-360.0
tp212
a(F420.0
F-360.0
tp213
a(F540.0
F-360.0
tp214
a(F660.0
F-360.0
tp215
a(F780.0
F-360.0
tp216
a(F900.0
F-360.0
tp217
a(F-900.0
F-480.0
tp218
a(F-780.0
F-480.0
tp219
a(F-660.0
F-480.0
tp220
a(F-540.0
F-480.0
tp221
a(F-420.0
F-480.0
tp222
a(F-300.0
F-480.0
tp223
a(F-180.0
F-480.0
tp224
a(F-60.0
F-480.0
tp225
a(F60.0
F-480.0
tp226
a(F180.0
F-480.0
tp227
a(F300.0
F-480.0
tp228
a(F420.0
F-480.0
tp229
a(F540.0
F-480.0
tp230
a(F660.0
F-480.0
tp231
a(F780.0
F-480.0
tp232
a(F900.0
F-480.0
tp233
asS'trial_num_in_block'
p234
I1
sS'n_cols'
p235
I16
sS'flags'
p236
(lp237
I3
aI0
aI0
aI0
aI0
aI0
aI3
aI0
aI0
aI0
aI1
aI0
aI1
aI0
aI0
aI1
aI0
aI0
aI2
aI0
aI3
aI0
aI0
aI0
aI1
aI0
aI0
aI0
aI0
aI0
aI0
aI0
aI3
aI0
aI0
aI0
aI0
aI0
aI0
aI3
aI0
aI0
aI0
aI0
aI0
aI1
aI0
aI1
aI0
aI0
aI0
aI3
aI0
aI3
aI0
aI0
aI0
aI1
aI0
aI1
aI0
aI0
aI0
aI0
aI3
aI0
aI0
aI0
aI0
aI0
aI0
aI0
aI0
aI0
aI0
aI0
aI0
aI1
aI0
aI0
aI0
aI0
aI2
aI0
aI0
aI0
aI3
aI0
aI1
aI0
aI0
aI0
aI0
aI0
aI0
aI0
aI0
aI0
aI0
aI0
aI0
aI0
aI0
aI0
aI0
aI0
aI1
aI0
aI0
aI0
aI1
aI0
aI0
aI0
aI2
aI0
aI2
aI0
aI3
aI0
aI0
aI0
aI0
aI0
aI1
aI0
aI0
aI0
aI2
aI0
aI0
aI0
aI0
aI0
aI0
aI0
aI0
aI1
aI0
aI0
aI0
aI0
aI1
aI0
asS'n_rows'
p238
I9
sS'trial_duration'
p239
I30
sS'screen_height'
p240
I1080
ssI2
(dp241
g2
I2
sg3
g4
sg5
I2
sg6
g7
sg8
VRightcluster 4
p242
sg10
g11
sg12
I10
sg13
g14
sg15
g16
sg17
(dp243
I1
(dp244
g20
I-60
sg21
I0
sg22
I-2
sg23
I2
sg24
I71
sg8
g242
sg25
I2
sg12
I0
sg26
F122.34110307788205
sg27
I1
sg28
I1
ssI2
(dp245
g20
I-60
sg21
I0
sg22
I-5
sg23
I1
sg24
I71
sg8
g242
sg25
I2
sg12
I0
sg26
F122.50762490986926
sg27
I1
sg28
I2
ssI3
(dp246
g20
I-60
sg21
I0
sg22
I-66
sg23
I4
sg24
I71
sg8
g242
sg25
I2
sg12
I0
sg26
F122.67441755369555
sg27
I1
sg28
I3
ssI4
(dp247
g20
I-60
sg21
I0
sg22
I-73
sg23
I6
sg24
I71
sg8
g242
sg25
I2
sg12
I0
sg26
F122.84934492992716
sg27
I1
sg28
I4
ssI5
(dp248
g20
I-60
sg21
I0
sg22
I-76
sg23
I7
sg24
I71
sg8
g242
sg25
I2
sg12
I0
sg26
F123.03260654889345
sg27
I1
sg28
I5
ssI6
(dp249
g20
I60
sg21
I240
sg22
I82
sg23
I214
sg24
I40
sg8
g242
sg25
I2
sg12
I0
sg26
F123.19921072910347
sg27
I0
sg28
I6
ssI7
(dp250
g20
I60
sg21
I240
sg22
I83
sg23
I215
sg24
I40
sg8
g242
sg25
I2
sg12
I0
sg26
F123.29919519675559
sg27
I0
sg28
I7
ssI8
(dp251
g20
I-60
sg21
I240
sg22
I-49
sg23
I263
sg24
I39
sg8
g242
sg25
I2
sg12
I0
sg26
F123.39098233396317
sg27
I1
sg28
I8
ssI9
(dp252
g20
I-60
sg21
I240
sg22
I-50
sg23
I263
sg24
I39
sg8
g242
sg25
I2
sg12
I0
sg26
F123.54930181427198
sg27
I1
sg28
I9
ssI45
(dp253
g20
I-180
sg21
I480
sg22
I-171
sg23
I540
sg24
I6
sg8
g242
sg25
I2
sg12
I0
sg26
F123.9992324208306
sg27
I1
sg28
I45
ssI47
(dp254
g20
I-180
sg21
I480
sg22
I-175
sg23
I540
sg24
I6
sg8
g242
sg25
I2
sg12
I0
sg26
F124.1742716031863
sg27
I1
sg28
I47
ssI48
(dp255
g20
I-180
sg21
I480
sg22
I-189
sg23
I526
sg24
I6
sg8
g242
sg25
I2
sg12
I0
sg26
F124.34078406220442
sg27
I1
sg28
I48
ssI49
(dp256
g20
I-300
sg21
I360
sg22
I-314
sg23
I304
sg24
I21
sg8
g242
sg25
I2
sg12
I0
sg26
F124.5158473464794
sg27
I0
sg28
I49
ssI50
(dp257
g20
I-300
sg21
I240
sg22
I-310
sg23
I211
sg24
I37
sg8
g242
sg25
I2
sg12
I0
sg26
F124.60740183321877
sg27
I0
sg28
I50
ssI51
(dp258
g20
I-420
sg21
I480
sg22
I-417
sg23
I430
sg24
I4
sg8
g242
sg25
I2
sg12
I0
sg26
F124.69086610915383
sg27
I0
sg28
I51
ssI52
(dp259
g20
I-420
sg21
I480
sg22
I-419
sg23
I426
sg24
I4
sg8
g242
sg25
I2
sg12
I0
sg26
F124.78236000634706
sg27
I0
sg28
I52
ssI53
(dp260
g20
I-420
sg21
I480
sg22
I-418
sg23
I424
sg24
I4
sg8
g242
sg25
I2
sg12
I0
sg26
F124.8659019440206
sg27
I0
sg28
I53
ssI54
(dp261
g20
I-420
sg21
I480
sg22
I-418
sg23
I424
sg24
I4
sg8
g242
sg25
I2
sg12
I0
sg26
F124.95740387518708
sg27
I0
sg28
I54
ssI55
(dp262
g20
I-420
sg21
I480
sg22
I-420
sg23
I424
sg24
I4
sg8
g242
sg25
I2
sg12
I0
sg26
F125.04065926782414
sg27
I0
sg28
I55
ssI56
(dp263
g20
I-420
sg21
I480
sg22
I-420
sg23
I421
sg24
I4
sg8
g242
sg25
I2
sg12
I0
sg26
F125.13256657987768
sg27
I0
sg28
I56
ssI57
(dp264
g20
I-420
sg21
I360
sg22
I-421
sg23
I418
sg24
I20
sg8
g242
sg25
I2
sg12
I0
sg26
F125.22397478135917
sg27
I1
sg28
I57
ssI58
(dp265
g20
I-420
sg21
I360
sg22
I-420
sg23
I418
sg24
I20
sg8
g242
sg25
I2
sg12
I0
sg26
F125.38247669980456
sg27
I1
sg28
I58
ssI59
(dp266
g20
I-300
sg21
I120
sg22
I-328
sg23
I178
sg24
I53
sg8
g242
sg25
I2
sg12
I0
sg26
F125.5656479365748
sg27
I1
sg28
I59
ssI60
(dp267
g20
I-300
sg21
I120
sg22
I-309
sg23
I124
sg24
I53
sg8
g242
sg25
I2
sg12
I0
sg26
F125.74058468577459
sg27
I1
sg28
I60
ssI61
(dp268
g20
I-300
sg21
I120
sg22
I-309
sg23
I122
sg24
I53
sg8
g242
sg25
I2
sg12
I0
sg26
F125.90740980024202
sg27
I1
sg28
I61
ssI62
(dp269
g20
I-300
sg21
I120
sg22
I-322
sg23
I116
sg24
I53
sg8
g242
sg25
I2
sg12
I0
sg26
F126.09068146167465
sg27
I1
sg28
I62
ssI63
(dp270
g20
I-540
sg21
I120
sg22
I-542
sg23
I125
sg24
I51
sg8
g242
sg25
I2
sg12
I0
sg26
F126.25721233188096
sg27
I1
sg28
I63
ssI64
(dp271
g20
I-540
sg21
I120
sg22
I-541
sg23
I124
sg24
I51
sg8
g242
sg25
I2
sg12
I0
sg26
F126.42388580510806
sg27
I1
sg28
I64
ssI65
(dp272
g20
I-540
sg21
I120
sg22
I-546
sg23
I124
sg24
I51
sg8
g242
sg25
I2
sg12
I0
sg26
F126.58226754870793
sg27
I1
sg28
I65
ssI66
(dp273
g20
I-420
sg21
I-120
sg22
I-445
sg23
I-121
sg24
I84
sg8
g242
sg25
I2
sg12
I0
sg26
F126.74062853787746
sg27
I0
sg28
I66
ssI67
(dp274
g20
I-420
sg21
I-120
sg22
I-446
sg23
I-119
sg24
I84
sg8
g242
sg25
I2
sg12
I0
sg26
F126.82393648608786
sg27
I0
sg28
I67
ssI68
(dp275
g20
I-300
sg21
I-120
sg22
I-326
sg23
I-120
sg24
I85
sg8
g242
sg25
I2
sg12
I0
sg26
F126.91565031329174
sg27
I1
sg28
I68
ssI69
(dp276
g20
I-300
sg21
I-120
sg22
I-324
sg23
I-121
sg24
I85
sg8
g242
sg25
I2
sg12
I0
sg26
F127.08221767112536
sg27
I1
sg28
I69
ssI70
(dp277
g20
I-540
sg21
I-120
sg22
I-536
sg23
I-109
sg24
I83
sg8
g242
sg25
I2
sg12
I0
sg26
F127.25710219950133
sg27
I1
sg28
I70
ssI71
(dp278
g20
I-780
sg21
I120
sg22
I-743
sg23
I120
sg24
I49
sg8
g242
sg25
I2
sg12
I0
sg26
F127.4321735177491
sg27
I1
sg28
I71
ssI72
(dp279
g20
I420
sg21
I240
sg22
I476
sg23
I211
sg24
I43
sg8
g242
sg25
I2
sg12
I0
sg26
F127.59878171494529
sg27
I0
sg28
I72
ssI73
(dp280
g20
I420
sg21
I240
sg22
I445
sg23
I203
sg24
I43
sg8
g242
sg25
I2
sg12
I0
sg26
F127.68225201636005
sg27
I0
sg28
I73
ssI74
(dp281
g20
I420
sg21
I240
sg22
I440
sg23
I209
sg24
I43
sg8
g242
sg25
I2
sg12
I0
sg26
F127.76539526812394
sg27
I0
sg28
I74
ssI75
(dp282
g20
I420
sg21
I360
sg22
I400
sg23
I307
sg24
I27
sg8
g242
sg25
I2
sg12
I1
sg26
F127.84875342866553
sg27
I2
sg28
I75
ssI76
(dp283
g20
I420
sg21
I360
sg22
I400
sg23
I313
sg24
I27
sg8
g242
sg25
I2
sg12
I1
sg26
F128.0904876420759
sg27
I3
sg28
I76
ssI77
(dp284
g20
I420
sg21
I360
sg22
I409
sg23
I344
sg24
I27
sg8
g242
sg25
I2
sg12
I1
sg26
F128.24872410466423
sg27
I3
sg28
I77
ssI102
(dp285
g20
I660
sg21
I480
sg22
I675
sg23
I538
sg24
I13
sg8
g242
sg25
I2
sg12
I2
sg26
F128.61528048273476
sg27
I2
sg28
I102
ssI103
(dp286
g20
I660
sg21
I480
sg22
I672
sg23
I535
sg24
I13
sg8
g242
sg25
I2
sg12
I2
sg26
F128.89040455740542
sg27
I3
sg28
I103
ssI104
(dp287
g20
I660
sg21
I120
sg22
I664
sg23
I96
sg24
I61
sg8
g242
sg25
I2
sg12
I3
sg26
F129.065248581167
sg27
I2
sg28
I104
ssI105
(dp288
g20
I660
sg21
I120
sg22
I663
sg23
I108
sg24
I61
sg8
g242
sg25
I2
sg12
I3
sg26
F129.32358098278291
sg27
I3
sg28
I105
ssI106
(dp289
g20
I180
sg21
I120
sg22
I200
sg23
I121
sg24
I57
sg8
g242
sg25
I2
sg12
I4
sg26
F129.4818857341411
sg27
I2
sg28
I106
ssI107
(dp290
g20
I180
sg21
I120
sg22
I193
sg23
I121
sg24
I57
sg8
g242
sg25
I2
sg12
I4
sg26
F129.73191971115193
sg27
I3
sg28
I107
ssI108
(dp291
g20
I300
sg21
I0
sg22
I313
sg23
I-54
sg24
I74
sg8
g242
sg25
I2
sg12
I5
sg26
F129.89027500959082
sg27
I2
sg28
I108
ssI109
(dp292
g20
I300
sg21
I-120
sg22
I311
sg23
I-61
sg24
I90
sg8
g242
sg25
I2
sg12
I5
sg26
F130.1401459638996
sg27
I0
sg28
I109
ssI110
(dp293
g20
I420
sg21
I-120
sg22
I414
sg23
I-157
sg24
I91
sg8
g242
sg25
I2
sg12
I6
sg26
F130.2235054634366
sg27
I2
sg28
I110
ssI111
(dp294
g20
I420
sg21
I-120
sg22
I413
sg23
I-149
sg24
I91
sg8
g242
sg25
I2
sg12
I6
sg26
F130.4733626930415
sg27
I3
sg28
I111
ssI112
(dp295
g20
I180
sg21
I-360
sg22
I206
sg23
I-388
sg24
I121
sg8
g242
sg25
I2
sg12
I7
sg26
F130.64855083864677
sg27
I2
sg28
I112
ssI113
(dp296
g20
I180
sg21
I-360
sg22
I209
sg23
I-389
sg24
I121
sg8
g242
sg25
I2
sg12
I7
sg26
F130.89005775757096
sg27
I3
sg28
I113
ssI114
(dp297
g20
I420
sg21
I-480
sg22
I447
sg23
I-462
sg24
I139
sg8
g242
sg25
I2
sg12
I8
sg26
F131.04854427756845
sg27
I2
sg28
I114
ssI115
(dp298
g20
I420
sg21
I-480
sg22
I446
sg23
I-456
sg24
I139
sg8
g242
sg25
I2
sg12
I8
sg26
F131.29831982844826
sg27
I3
sg28
I115
ssI116
(dp299
g20
I540
sg21
I-480
sg22
I549
sg23
I-450
sg24
I140
sg8
g242
sg25
I2
sg12
I9
sg26
F131.46497087350053
sg27
I2
sg28
I116
ssI117
(dp300
g20
I540
sg21
I-480
sg22
I556
sg23
I-448
sg24
I140
sg8
g242
sg25
I2
sg12
I9
sg26
F131.70660332325315
sg27
I3
sg28
I117
ssI118
(dp301
g20
I780
sg21
I-360
sg22
I787
sg23
I-331
sg24
I126
sg8
g242
sg25
I2
sg12
I10
sg26
F131.87335077598163
sg27
I2
sg28
I118
sssg80
I35
sg81
I1920
sg82
S'trial02.png'
p302
sg84
VRightcluster 4->trial02.png
p303
sg86
S'results\\P035\\trial_png\\trial02.png'
p304
sg88
g89
sg234
I2
sg235
I16
sg236
(lp305
I1
aI0
aI0
aI0
aI0
aI0
aI1
aI0
aI2
aI0
aI0
aI0
aI0
aI3
aI2
aI0
aI0
aI0
aI1
aI0
aI1
aI0
aI0
aI0
aI0
aI0
aI0
aI3
aI0
aI0
aI0
aI0
aI0
aI0
aI0
aI0
aI0
aI0
aI0
aI1
aI0
aI0
aI0
aI0
aI0
aI0
aI0
aI2
aI0
aI1
aI0
aI1
aI0
aI1
aI0
aI0
aI0
aI3
aI0
aI0
aI0
aI3
aI0
aI0
aI0
aI0
aI0
aI0
aI0
aI0
aI0
aI1
aI0
aI0
aI3
aI0
aI0
aI0
aI0
aI2
aI0
aI0
aI0
aI1
aI0
aI1
aI0
aI0
aI0
aI0
aI0
aI3
aI0
aI0
aI0
aI0
aI1
aI0
aI0
aI0
aI0
aI0
aI0
aI0
aI0
aI0
aI0
aI0
aI0
aI0
aI0
aI0
aI0
aI0
aI0
aI0
aI0
aI0
aI1
aI0
aI0
aI3
aI0
aI0
aI0
aI0
aI3
aI2
aI0
aI1
aI0
aI0
aI1
aI0
aI0
aI0
aI0
aI0
aI0
aI3
aI3
aI0
aI0
aI0
asg238
I9
sg239
I30
sg240
I1080
ssI3
(dp306
g2
I3
sg3
g4
sg5
I2
sg6
g7
sg8
VRightcluster 1
p307
sg10
g11
sg12
I10
sg13
g14
sg15
g16
sg17
(dp308
I1
(dp309
g20
I-60
sg21
I0
sg22
I-5
sg23
I2
sg24
I71
sg8
g307
sg25
I3
sg12
I0
sg26
F136.022783008415
sg27
I0
sg28
I1
ssI2
(dp310
g20
I-60
sg21
I0
sg22
I-4
sg23
I4
sg24
I71
sg8
g307
sg25
I3
sg12
I0
sg26
F136.11444628853906
sg27
I0
sg28
I2
ssI3
(dp311
g20
I-60
sg21
I0
sg22
I-3
sg23
I2
sg24
I71
sg8
g307
sg25
I3
sg12
I0
sg26
F136.1977709741932
sg27
I0
sg28
I3
ssI4
(dp312
g20
I-60
sg21
I0
sg22
I-3
sg23
I2
sg24
I71
sg8
g307
sg25
I3
sg12
I0
sg26
F136.28940948290028
sg27
I0
sg28
I4
ssI5
(dp313
g20
I-60
sg21
I0
sg22
I-5
sg23
I3
sg24
I71
sg8
g307
sg25
I3
sg12
I0
sg26
F136.37268562996724
sg27
I0
sg28
I5
ssI6
(dp314
g20
I-60
sg21
I240
sg22
I-17
sg23
I222
sg24
I39
sg8
g307
sg25
I3
sg12
I0
sg26
F136.4643371938805
sg27
I0
sg28
I6
ssI7
(dp315
g20
I-60
sg21
I240
sg22
I-23
sg23
I220
sg24
I39
sg8
g307
sg25
I3
sg12
I0
sg26
F136.55608181798107
sg27
I0
sg28
I7
ssI8
(dp316
g20
I-60
sg21
I240
sg22
I-26
sg23
I220
sg24
I39
sg8
g307
sg25
I3
sg12
I0
sg26
F136.647649025178
sg27
I0
sg28
I8
ssI9
(dp317
g20
I-180
sg21
I240
sg22
I-160
sg23
I251
sg24
I38
sg8
g307
sg25
I3
sg12
I0
sg26
F136.73110827987966
sg27
I1
sg28
I9
ssI10
(dp318
g20
I-180
sg21
I240
sg22
I-165
sg23
I247
sg24
I38
sg8
g307
sg25
I3
sg12
I0
sg26
F136.88932331853994
sg27
I1
sg28
I10
ssI11
(dp319
g20
I-60
sg21
I240
sg22
I-62
sg23
I227
sg24
I39
sg8
g307
sg25
I3
sg12
I0
sg26
F137.05611596236622
sg27
I0
sg28
I11
ssI12
(dp320
g20
I60
sg21
I240
sg22
I52
sg23
I242
sg24
I40
sg8
g307
sg25
I3
sg12
I1
sg26
F137.14758374914754
sg27
I2
sg28
I12
ssI13
(dp321
g20
I60
sg21
I240
sg22
I54
sg23
I241
sg24
I40
sg8
g307
sg25
I3
sg12
I1
sg26
F137.39771681182492
sg27
I3
sg28
I13
ssI14
(dp322
g20
I180
sg21
I360
sg22
I153
sg23
I344
sg24
I25
sg8
g307
sg25
I3
sg12
I2
sg26
F137.55600951222414
sg27
I2
sg28
I14
ssI15
(dp323
g20
I180
sg21
I360
sg22
I154
sg23
I346
sg24
I25
sg8
g307
sg25
I3
sg12
I2
sg26
F137.8059926074061
sg27
I3
sg28
I15
ssI16
(dp324
g20
I300
sg21
I480
sg22
I349
sg23
I438
sg24
I10
sg8
g307
sg25
I3
sg12
I2
sg26
F137.96428698154932
sg27
I0
sg28
I16
ssI17
(dp325
g20
I420
sg21
I480
sg22
I446
sg23
I507
sg24
I11
sg8
g307
sg25
I3
sg12
I3
sg26
F138.0475330012182
sg27
I2
sg28
I17
ssI18
(dp326
g20
I420
sg21
I480
sg22
I448
sg23
I503
sg24
I11
sg8
g307
sg25
I3
sg12
I3
sg26
F138.29764095772998
sg27
I3
sg28
I18
ssI19
(dp327
g20
I420
sg21
I240
sg22
I432
sg23
I182
sg24
I43
sg8
g307
sg25
I3
sg12
I4
sg26
F138.45590486972606
sg27
I2
sg28
I19
ssI20
(dp328
g20
I420
sg21
I240
sg22
I430
sg23
I180
sg24
I43
sg8
g307
sg25
I3
sg12
I4
sg26
F138.70588829965664
sg27
I3
sg28
I20
ssI21
(dp329
g20
I300
sg21
I-120
sg22
I332
sg23
I-104
sg24
I90
sg8
g307
sg25
I3
sg12
I5
sg26
F138.87250620457053
sg27
I2
sg28
I21
ssI22
(dp330
g20
I300
sg21
I-120
sg22
I325
sg23
I-148
sg24
I90
sg8
g307
sg25
I3
sg12
I5
sg26
F139.1141396585699
sg27
I3
sg28
I22
ssI23
(dp331
g20
I540
sg21
I-120
sg22
I541
sg23
I-142
sg24
I92
sg8
g307
sg25
I3
sg12
I6
sg26
F139.2725394786089
sg27
I2
sg28
I23
ssI24
(dp332
g20
I540
sg21
I-120
sg22
I534
sg23
I-135
sg24
I92
sg8
g307
sg25
I3
sg12
I6
sg26
F139.52244424255377
sg27
I3
sg28
I24
ssI25
(dp333
g20
I300
sg21
I-360
sg22
I337
sg23
I-415
sg24
I122
sg8
g307
sg25
I3
sg12
I6
sg26
F139.68078246879986
sg27
I0
sg28
I25
ssI26
(dp334
g20
I300
sg21
I-480
sg22
I327
sg23
I-435
sg24
I138
sg8
g307
sg25
I3
sg12
I7
sg26
F139.76415234555225
sg27
I2
sg28
I26
ssI27
(dp335
g20
I300
sg21
I-480
sg22
I324
sg23
I-434
sg24
I138
sg8
g307
sg25
I3
sg12
I7
sg26
F140.0057335787269
sg27
I3
sg28
I27
ssI28
(dp336
g20
I660
sg21
I-360
sg22
I617
sg23
I-372
sg24
I125
sg8
g307
sg25
I3
sg12
I8
sg26
F140.16403096560998
sg27
I2
sg28
I28
ssI29
(dp337
g20
I660
sg21
I-360
sg22
I620
sg23
I-371
sg24
I125
sg8
g307
sg25
I3
sg12
I8
sg26
F140.40576986550468
sg27
I3
sg28
I29
ssI30
(dp338
g20
I660
sg21
I-360
sg22
I623
sg23
I-373
sg24
I125
sg8
g307
sg25
I3
sg12
I8
sg26
F140.5722444979001
sg27
I3
sg28
I30
ssI31
(dp339
g20
I540
sg21
I-480
sg22
I539
sg23
I-448
sg24
I140
sg8
g307
sg25
I3
sg12
I9
sg26
F140.73896249272775
sg27
I2
sg28
I31
ssI32
(dp340
g20
I540
sg21
I-480
sg22
I532
sg23
I-445
sg24
I140
sg8
g307
sg25
I3
sg12
I9
sg26
F140.98912568280412
sg27
I3
sg28
I32
ssI33
(dp341
g20
I900
sg21
I-360
sg22
I874
sg23
I-413
sg24
I127
sg8
g307
sg25
I3
sg12
I9
sg26
F141.15551562373457
sg27
I0
sg28
I33
ssI34
(dp342
g20
I900
sg21
I-360
sg22
I873
sg23
I-417
sg24
I127
sg8
g307
sg25
I3
sg12
I9
sg26
F141.25549473540468
sg27
I0
sg28
I34
ssI35
(dp343
g20
I900
sg21
I-360
sg22
I876
sg23
I-417
sg24
I127
sg8
g307
sg25
I3
sg12
I9
sg26
F141.3388836928425
sg27
I0
sg28
I35
ssI36
(dp344
g20
I900
sg21
I-360
sg22
I878
sg23
I-416
sg24
I127
sg8
g307
sg25
I3
sg12
I9
sg26
F141.4223021081816
sg27
I0
sg28
I36
ssI37
(dp345
g20
I900
sg21
I-360
sg22
I882
sg23
I-418
sg24
I127
sg8
g307
sg25
I3
sg12
I9
sg26
F141.50549322903453
sg27
I0
sg28
I37
ssI38
(dp346
g20
I900
sg21
I-360
sg22
I880
sg23
I-417
sg24
I127
sg8
g307
sg25
I3
sg12
I9
sg26
F141.58878745254106
sg27
I0
sg28
I38
ssI39
(dp347
g20
I780
sg21
I0
sg22
I820
sg23
I21
sg24
I78
sg8
g307
sg25
I3
sg12
I10
sg26
F141.67207665481465
sg27
I2
sg28
I39
sssg80
I35
sg81
I1920
sg82
S'trial03.png'
p348
sg84
VRightcluster 1->trial03.png
p349
sg86
S'results\\P035\\trial_png\\trial03.png'
p350
sg88
g89
sg234
I3
sg235
I16
sg236
(lp351
I0
aI0
aI1
aI0
aI1
aI0
aI0
aI1
aI0
aI0
aI0
aI3
aI0
aI2
aI0
aI2
aI1
aI0
aI0
aI0
aI0
aI0
aI0
aI0
aI0
aI3
aI0
aI0
aI0
aI0
aI0
aI0
aI0
aI0
aI1
aI0
aI0
aI0
aI1
aI0
aI3
aI0
aI0
aI3
aI0
aI0
aI2
aI0
aI0
aI0
aI0
aI0
aI0
aI0
aI0
aI0
aI0
aI0
aI0
aI0
aI0
aI0
aI0
aI0
aI1
aI0
aI0
aI0
aI1
aI0
aI1
aI0
aI0
aI0
aI0
aI0
aI0
aI0
aI3
aI0
aI0
aI0
aI1
aI0
aI0
aI0
aI0
aI0
aI0
aI0
aI3
aI0
aI3
aI0
aI0
aI2
aI0
aI0
aI0
aI0
aI0
aI0
aI1
aI0
aI0
aI0
aI0
aI0
aI0
aI0
aI0
aI0
aI1
aI0
aI0
aI1
aI0
aI0
aI0
aI0
aI0
aI0
aI0
aI0
aI0
aI3
aI0
aI0
aI0
aI0
aI0
aI0
aI1
aI0
aI0
aI1
aI0
aI0
aI3
aI0
aI3
aI0
aI0
aI2
asg238
I9
sg239
I30
sg240
I1080
ssI4
(dp352
g2
I4
sg3
g4
sg5
I2
sg6
g7
sg8
VRightcluster 2
p353
sg10
g11
sg12
I10
sg13
g14
sg15
g16
sg17
(dp354
I1
(dp355
g20
I60
sg21
I0
sg22
I3
sg23
I9
sg24
I72
sg8
g353
sg25
I4
sg12
I1
sg26
F146.1550078096916
sg27
I2
sg28
I1
ssI2
(dp356
g20
I60
sg21
I0
sg22
I3
sg23
I2
sg24
I72
sg8
g353
sg25
I4
sg12
I1
sg26
F146.4050391087112
sg27
I3
sg28
I2
ssI3
(dp357
g20
I60
sg21
I0
sg22
I59
sg23
I7
sg24
I72
sg8
g353
sg25
I4
sg12
I1
sg26
F146.5632531431247
sg27
I3
sg28
I3
ssI4
(dp358
g20
I60
sg21
I0
sg22
I58
sg23
I5
sg24
I72
sg8
g353
sg25
I4
sg12
I1
sg26
F146.7300749101032
sg27
I3
sg28
I4
ssI5
(dp359
g20
I60
sg21
I0
sg22
I58
sg23
I7
sg24
I72
sg8
g353
sg25
I4
sg12
I1
sg26
F146.88832476264633
sg27
I3
sg28
I5
ssI6
(dp360
g20
I60
sg21
I0
sg22
I58
sg23
I4
sg24
I72
sg8
g353
sg25
I4
sg12
I1
sg26
F147.04654783527985
sg27
I3
sg28
I6
ssI7
(dp361
g20
I60
sg21
I0
sg22
I59
sg23
I4
sg24
I72
sg8
g353
sg25
I4
sg12
I1
sg26
F147.21329294476618
sg27
I3
sg28
I7
ssI8
(dp362
g20
I180
sg21
I240
sg22
I140
sg23
I250
sg24
I41
sg8
g353
sg25
I4
sg12
I2
sg26
F147.3797920138295
sg27
I2
sg28
I8
ssI9
(dp363
g20
I180
sg21
I240
sg22
I134
sg23
I249
sg24
I41
sg8
g353
sg25
I4
sg12
I2
sg26
F147.62986649545383
sg27
I3
sg28
I9
ssI10
(dp364
g20
I180
sg21
I240
sg22
I174
sg23
I269
sg24
I41
sg8
g353
sg25
I4
sg12
I2
sg26
F147.79653729069014
sg27
I3
sg28
I10
ssI11
(dp365
g20
I180
sg21
I480
sg22
I174
sg23
I470
sg24
I9
sg8
g353
sg25
I4
sg12
I3
sg26
F147.9630571141838
sg27
I2
sg28
I11
ssI12
(dp366
g20
I180
sg21
I480
sg22
I180
sg23
I473
sg24
I9
sg8
g353
sg25
I4
sg12
I3
sg26
F148.21308707420803
sg27
I3
sg28
I12
ssI13
(dp367
g20
I420
sg21
I360
sg22
I443
sg23
I343
sg24
I27
sg8
g353
sg25
I4
sg12
I4
sg26
F148.37981042501724
sg27
I2
sg28
I13
ssI14
(dp368
g20
I420
sg21
I360
sg22
I442
sg23
I343
sg24
I27
sg8
g353
sg25
I4
sg12
I4
sg26
F148.62975669782327
sg27
I3
sg28
I14
ssI15
(dp369
g20
I660
sg21
I480
sg22
I703
sg23
I515
sg24
I13
sg8
g353
sg25
I4
sg12
I5
sg26
F148.79637125524823
sg27
I2
sg28
I15
ssI16
(dp370
g20
I660
sg21
I480
sg22
I701
sg23
I508
sg24
I13
sg8
g353
sg25
I4
sg12
I5
sg26
F149.03795483166505
sg27
I3
sg28
I16
ssI17
(dp371
g20
I780
sg21
I360
sg22
I754
sg23
I363
sg24
I30
sg8
g353
sg25
I4
sg12
I5
sg26
F149.20465106781558
sg27
I0
sg28
I17
ssI18
(dp372
g20
I780
sg21
I240
sg22
I749
sg23
I292
sg24
I46
sg8
g353
sg25
I4
sg12
I5
sg26
F149.29630397072424
sg27
I0
sg28
I18
ssI19
(dp373
g20
I660
sg21
I240
sg22
I705
sg23
I226
sg24
I45
sg8
g353
sg25
I4
sg12
I6
sg26
F149.38789628408676
sg27
I2
sg28
I19
ssI20
(dp374
g20
I660
sg21
I240
sg22
I699
sg23
I227
sg24
I45
sg8
g353
sg25
I4
sg12
I6
sg26
F149.63790816767187
sg27
I3
sg28
I20
ssI21
(dp375
g20
I900
sg21
I480
sg22
I898
sg23
I482
sg24
I15
sg8
g353
sg25
I4
sg12
I7
sg26
F149.79624304642903
sg27
I2
sg28
I21
ssI22
(dp376
g20
I900
sg21
I480
sg22
I897
sg23
I483
sg24
I15
sg8
g353
sg25
I4
sg12
I7
sg26
F150.04622312887113
sg27
I3
sg28
I22
ssI23
(dp377
g20
I540
sg21
I0
sg22
I534
sg23
I30
sg24
I76
sg8
g353
sg25
I4
sg12
I8
sg26
F150.21291936502166
sg27
I2
sg28
I23
ssI24
(dp378
g20
I540
sg21
I0
sg22
I526
sg23
I33
sg24
I76
sg8
g353
sg25
I4
sg12
I8
sg26
F150.46291919764735
sg27
I3
sg28
I24
ssI25
(dp379
g20
I300
sg21
I0
sg22
I299
sg23
I9
sg24
I74
sg8
g353
sg25
I4
sg12
I9
sg26
F150.6293673848818
sg27
I2
sg28
I25
ssI26
(dp380
g20
I300
sg21
I0
sg22
I292
sg23
I7
sg24
I74
sg8
g353
sg25
I4
sg12
I9
sg26
F150.87111666199144
sg27
I3
sg28
I26
ssI27
(dp381
g20
I900
sg21
I0
sg22
I882
sg23
I29
sg24
I79
sg8
g353
sg25
I4
sg12
I10
sg26
F151.02952317700783
sg27
I2
sg28
I27
sssg80
I35
sg81
I1920
sg82
S'trial04.png'
p382
sg84
VRightcluster 2->trial04.png
p383
sg86
S'results\\P035\\trial_png\\trial04.png'
p384
sg88
g89
sg234
I4
sg235
I16
sg236
(lp385
I0
aI1
aI0
aI0
aI0
aI0
aI0
aI0
aI0
aI3
aI0
aI0
aI0
aI3
aI0
aI3
aI0
aI0
aI1
aI0
aI0
aI1
aI0
aI0
aI0
aI0
aI0
aI3
aI0
aI0
aI0
aI0
aI1
aI0
aI0
aI0
aI0
aI0
aI0
aI1
aI0
aI3
aI0
aI0
aI0
aI3
aI0
aI0
aI0
aI0
aI0
aI0
aI1
aI0
aI0
aI0
aI0
aI0
aI0
aI0
aI0
aI0
aI0
aI0
aI1
aI0
aI1
aI0
aI0
aI0
aI1
aI0
aI3
aI0
aI3
aI0
aI3
aI0
aI0
aI3
aI0
aI0
aI0
aI0
aI0
aI0
aI0
aI0
aI0
aI0
aI0
aI0
aI0
aI0
aI0
aI0
aI1
aI0
aI1
aI0
aI0
aI0
aI1
aI0
aI0
aI0
aI0
aI2
aI0
aI0
aI0
aI0
aI0
aI0
aI0
aI0
aI1
aI0
aI0
aI0
aI0
aI2
aI0
aI0
aI0
aI2
aI0
aI0
aI0
aI1
aI0
aI0
aI0
aI0
aI0
aI1
aI0
aI0
aI0
aI2
aI0
aI0
aI0
aI2
asg238
I9
sg239
I30
sg240
I1080
ssI5
(dp386
g2
I5
sg3
g4
sg5
I2
sg6
g7
sg8
VLeftcluster 2
p387
sg10
g11
sg12
I10
sg13
g14
sg15
g16
sg17
(dp388
I1
(dp389
g20
I60
sg21
I0
sg22
I1
sg23
I6
sg24
I72
sg8
g387
sg25
I5
sg12
I0
sg26
F157.85357950319258
sg27
I0
sg28
I1
ssI2
(dp390
g20
I60
sg21
I0
sg22
I2
sg23
I6
sg24
I72
sg8
g387
sg25
I5
sg12
I0
sg26
F157.93694469346065
sg27
I0
sg28
I2
ssI3
(dp391
g20
I60
sg21
I0
sg22
I1
sg23
I7
sg24
I72
sg8
g387
sg25
I5
sg12
I0
sg26
F158.02857249020371
sg27
I0
sg28
I3
ssI4
(dp392
g20
I-60
sg21
I0
sg22
I-1
sg23
I5
sg24
I71
sg8
g387
sg25
I5
sg12
I0
sg26
F158.11182386585415
sg27
I0
sg28
I4
ssI5
(dp393
g20
I60
sg21
I120
sg22
I25
sg23
I107
sg24
I56
sg8
g387
sg25
I5
sg12
I0
sg26
F158.20356146022823
sg27
I1
sg28
I5
ssI6
(dp394
g20
I60
sg21
I120
sg22
I20
sg23
I111
sg24
I56
sg8
g387
sg25
I5
sg12
I0
sg26
F158.36203693351308
sg27
I1
sg28
I6
ssI7
(dp395
g20
I-60
sg21
I120
sg22
I-28
sg23
I152
sg24
I55
sg8
g387
sg25
I5
sg12
I0
sg26
F158.5368652240777
sg27
I0
sg28
I7
ssI8
(dp396
g20
I60
sg21
I120
sg22
I60
sg23
I149
sg24
I56
sg8
g387
sg25
I5
sg12
I0
sg26
F158.62021267265527
sg27
I1
sg28
I8
ssI9
(dp397
g20
I-180
sg21
I120
sg22
I-179
sg23
I149
sg24
I54
sg8
g387
sg25
I5
sg12
I1
sg26
F158.77845549547192
sg27
I2
sg28
I9
ssI10
(dp398
g20
I-180
sg21
I120
sg22
I-180
sg23
I148
sg24
I54
sg8
g387
sg25
I5
sg12
I1
sg26
F159.02025331116874
sg27
I3
sg28
I10
ssI11
(dp399
g20
I-180
sg21
I240
sg22
I-230
sg23
I202
sg24
I38
sg8
g387
sg25
I5
sg12
I1
sg26
F159.1784519471339
sg27
I0
sg28
I11
ssI12
(dp400
g20
I-300
sg21
I360
sg22
I-291
sg23
I402
sg24
I21
sg8
g387
sg25
I5
sg12
I2
sg26
F159.27843373679525
sg27
I2
sg28
I12
ssI13
(dp401
g20
I-300
sg21
I360
sg22
I-291
sg23
I399
sg24
I21
sg8
g387
sg25
I5
sg12
I2
sg26
F159.52013213207601
sg27
I3
sg28
I13
ssI14
(dp402
g20
I-540
sg21
I360
sg22
I-537
sg23
I313
sg24
I19
sg8
g387
sg25
I5
sg12
I2
sg26
F159.6785272656307
sg27
I0
sg28
I14
ssI15
(dp403
g20
I-540
sg21
I360
sg22
I-539
sg23
I309
sg24
I19
sg8
g387
sg25
I5
sg12
I2
sg26
F159.7701075280338
sg27
I0
sg28
I15
ssI16
(dp404
g20
I-540
sg21
I240
sg22
I-570
sg23
I275
sg24
I35
sg8
g387
sg25
I5
sg12
I3
sg26
F159.85336158167547
sg27
I2
sg28
I16
ssI17
(dp405
g20
I-540
sg21
I240
sg22
I-571
sg23
I273
sg24
I35
sg8
g387
sg25
I5
sg12
I3
sg26
F160.0950562947187
sg27
I3
sg28
I17
ssI86
(dp406
g20
I-780
sg21
I480
sg22
I-788
sg23
I502
sg24
I1
sg8
g387
sg25
I5
sg12
I3
sg26
F160.8283565102297
sg27
I0
sg28
I86
ssI87
(dp407
g20
I-900
sg21
I360
sg22
I-891
sg23
I406
sg24
I16
sg8
g387
sg25
I5
sg12
I4
sg26
F160.91986044988926
sg27
I2
sg28
I87
ssI88
(dp408
g20
I-900
sg21
I0
sg22
I-847
sg23
I-26
sg24
I64
sg8
g387
sg25
I5
sg12
I5
sg26
F161.16166797330334
sg27
I2
sg28
I88
ssI89
(dp409
g20
I-900
sg21
I0
sg22
I-874
sg23
I5
sg24
I64
sg8
g387
sg25
I5
sg12
I5
sg26
F161.40317890921415
sg27
I3
sg28
I89
ssI90
(dp410
g20
I-900
sg21
I0
sg22
I-843
sg23
I-26
sg24
I64
sg8
g387
sg25
I5
sg12
I5
sg26
F161.5615556315811
sg27
I3
sg28
I90
ssI91
(dp411
g20
I-780
sg21
I-120
sg22
I-776
sg23
I-70
sg24
I81
sg8
g387
sg25
I5
sg12
I6
sg26
F161.72821504535523
sg27
I2
sg28
I91
ssI92
(dp412
g20
I-540
sg21
I-120
sg22
I-523
sg23
I-123
sg24
I83
sg8
g387
sg25
I5
sg12
I7
sg26
F161.96992013561385
sg27
I2
sg28
I92
ssI93
(dp413
g20
I-540
sg21
I-120
sg22
I-523
sg23
I-122
sg24
I83
sg8
g387
sg25
I5
sg12
I7
sg26
F162.21148730933555
sg27
I3
sg28
I93
ssI94
(dp414
g20
I-780
sg21
I-360
sg22
I-773
sg23
I-413
sg24
I113
sg8
g387
sg25
I5
sg12
I7
sg26
F162.37809851927204
sg27
I0
sg28
I94
ssI95
(dp415
g20
I-780
sg21
I-360
sg22
I-768
sg23
I-416
sg24
I113
sg8
g387
sg25
I5
sg12
I7
sg26
F162.46965434500726
sg27
I0
sg28
I95
ssI96
(dp416
g20
I-900
sg21
I-480
sg22
I-842
sg23
I-440
sg24
I128
sg8
g387
sg25
I5
sg12
I8
sg26
F162.561381896915
sg27
I2
sg28
I96
ssI97
(dp417
g20
I-780
sg21
I-480
sg22
I-833
sg23
I-441
sg24
I129
sg8
g387
sg25
I5
sg12
I8
sg26
F162.8030672369896
sg27
I0
sg28
I97
ssI98
(dp418
g20
I-660
sg21
I-480
sg22
I-636
sg23
I-423
sg24
I130
sg8
g387
sg25
I5
sg12
I9
sg26
F162.90307279382114
sg27
I2
sg28
I98
ssI99
(dp419
g20
I-660
sg21
I-480
sg22
I-641
sg23
I-435
sg24
I130
sg8
g387
sg25
I5
sg12
I9
sg26
F163.14458172123886
sg27
I3
sg28
I99
ssI100
(dp420
g20
I-420
sg21
I-480
sg22
I-397
sg23
I-464
sg24
I132
sg8
g387
sg25
I5
sg12
I10
sg26
F163.31127628364493
sg27
I2
sg28
I100
sssg80
I35
sg81
I1920
sg82
S'trial05.png'
p421
sg84
VLeftcluster 2->trial05.png
p422
sg86
S'results\\P035\\trial_png\\trial05.png'
p423
sg88
g89
sg234
I5
sg235
I16
sg236
(lp424
I0
aI0
aI2
aI0
aI0
aI0
aI0
aI2
aI0
aI1
aI0
aI0
aI0
aI0
aI0
aI0
aI3
aI0
aI0
aI0
aI0
aI3
aI0
aI0
aI0
aI0
aI0
aI0
aI1
aI0
aI0
aI1
aI0
aI0
aI0
aI3
aI0
aI0
aI0
aI0
aI0
aI0
aI1
aI0
aI0
aI0
aI0
aI0
aI0
aI0
aI0
aI0
aI0
aI0
aI3
aI0
aI1
aI0
aI0
aI1
aI0
aI0
aI1
aI0
aI3
aI0
aI0
aI0
aI0
aI0
aI0
aI0
aI0
aI0
aI0
aI0
aI0
aI0
aI0
aI0
aI0
aI3
aI0
aI3
aI0
aI2
aI0
aI2
aI0
aI0
aI0
aI0
aI0
aI0
aI0
aI0
aI0
aI0
aI0
aI0
aI0
aI0
aI0
aI0
aI0
aI1
aI0
aI1
aI0
aI1
aI0
aI1
aI0
aI0
aI0
aI0
aI0
aI0
aI0
aI0
aI0
aI0
aI0
aI0
aI0
aI0
aI0
aI0
aI3
aI0
aI3
aI0
aI3
aI0
aI0
aI2
aI0
aI1
aI0
aI1
aI0
aI1
aI0
aI1
asg238
I9
sg239
I30
sg240
I1080
ssI6
(dp425
g2
I6
sg3
g4
sg5
I2
sg6
g7
sg8
VRightcluster 5
p426
sg10
g11
sg12
I10
sg13
g14
sg15
g16
sg17
(dp427
I1
(dp428
g20
I-60
sg21
I0
sg22
I0
sg23
I-4
sg24
I71
sg8
g426
sg25
I6
sg12
I0
sg26
F167.83575077812384
sg27
I0
sg28
I1
ssI2
(dp429
g20
I60
sg21
I0
sg22
I1
sg23
I-5
sg24
I72
sg8
g426
sg25
I6
sg12
I0
sg26
F167.92736351116764
sg27
I0
sg28
I2
ssI3
(dp430
g20
I-60
sg21
I0
sg22
I0
sg23
I-4
sg24
I71
sg8
g426
sg25
I6
sg12
I0
sg26
F168.01906696115657
sg27
I0
sg28
I3
ssI4
(dp431
g20
I-60
sg21
I120
sg22
I-90
sg23
I118
sg24
I55
sg8
g426
sg25
I6
sg12
I0
sg26
F168.11066998648312
sg27
I1
sg28
I4
ssI5
(dp432
g20
I-180
sg21
I120
sg22
I-169
sg23
I131
sg24
I54
sg8
g426
sg25
I6
sg12
I0
sg26
F168.28570113486603
sg27
I1
sg28
I5
ssI6
(dp433
g20
I-180
sg21
I120
sg22
I-164
sg23
I132
sg24
I54
sg8
g426
sg25
I6
sg12
I0
sg26
F168.4525543682389
sg27
I1
sg28
I6
ssI7
(dp434
g20
I-180
sg21
I120
sg22
I-220
sg23
I127
sg24
I54
sg8
g426
sg25
I6
sg12
I0
sg26
F168.63569146062355
sg27
I1
sg28
I7
ssI8
(dp435
g20
I-420
sg21
I120
sg22
I-427
sg23
I124
sg24
I52
sg8
g426
sg25
I6
sg12
I0
sg26
F168.7941070138595
sg27
I1
sg28
I8
ssI9
(dp436
g20
I-420
sg21
I120
sg22
I-431
sg23
I124
sg24
I52
sg8
g426
sg25
I6
sg12
I0
sg26
F168.95235485790954
sg27
I1
sg28
I9
ssI10
(dp437
g20
I-420
sg21
I120
sg22
I-432
sg23
I118
sg24
I52
sg8
g426
sg25
I6
sg12
I0
sg26
F169.11916423917955
sg27
I1
sg28
I10
ssI11
(dp438
g20
I-300
sg21
I-120
sg22
I-294
sg23
I-159
sg24
I85
sg8
g426
sg25
I6
sg12
I0
sg26
F169.2857161985653
sg27
I1
sg28
I11
ssI12
(dp439
g20
I-300
sg21
I-120
sg22
I-293
sg23
I-161
sg24
I85
sg8
g426
sg25
I6
sg12
I0
sg26
F169.45218045374577
sg27
I1
sg28
I12
ssI13
(dp440
g20
I-60
sg21
I-120
sg22
I-112
sg23
I-167
sg24
I87
sg8
g426
sg25
I6
sg12
I0
sg26
F169.6105481378927
sg27
I0
sg28
I13
ssI14
(dp441
g20
I180
sg21
I-120
sg22
I135
sg23
I-130
sg24
I89
sg8
g426
sg25
I6
sg12
I0
sg26
F169.69381056025622
sg27
I0
sg28
I14
ssI15
(dp442
g20
I180
sg21
I0
sg22
I224
sg23
I-7
sg24
I73
sg8
g426
sg25
I6
sg12
I1
sg26
F169.78547752261738
sg27
I2
sg28
I15
ssI16
(dp443
g20
I180
sg21
I0
sg22
I216
sg23
I-4
sg24
I73
sg8
g426
sg25
I6
sg12
I1
sg26
F170.0355068131439
sg27
I3
sg28
I16
ssI17
(dp444
g20
I420
sg21
I360
sg22
I423
sg23
I320
sg24
I27
sg8
g426
sg25
I6
sg12
I1
sg26
F170.20227033381843
sg27
I0
sg28
I17
ssI18
(dp445
g20
I420
sg21
I360
sg22
I425
sg23
I324
sg24
I27
sg8
g426
sg25
I6
sg12
I1
sg26
F170.28552237896656
sg27
I0
sg28
I18
ssI19
(dp446
g20
I300
sg21
I480
sg22
I360
sg23
I431
sg24
I10
sg8
g426
sg25
I6
sg12
I1
sg26
F170.36880086927613
sg27
I0
sg28
I19
ssI20
(dp447
g20
I420
sg21
I480
sg22
I361
sg23
I428
sg24
I11
sg8
g426
sg25
I6
sg12
I2
sg26
F170.45209475803358
sg27
I2
sg28
I20
ssI21
(dp448
g20
I180
sg21
I360
sg22
I207
sg23
I378
sg24
I25
sg8
g426
sg25
I6
sg12
I3
sg26
F170.70220137555043
sg27
I2
sg28
I21
ssI22
(dp449
g20
I420
sg21
I480
sg22
I454
sg23
I494
sg24
I11
sg8
g426
sg25
I6
sg12
I3
sg26
F170.94372369292296
sg27
I3
sg28
I22
ssI23
(dp450
g20
I420
sg21
I240
sg22
I386
sg23
I273
sg24
I43
sg8
g426
sg25
I6
sg12
I3
sg26
F171.10216736506482
sg27
I0
sg28
I23
ssI24
(dp451
g20
I420
sg21
I120
sg22
I416
sg23
I98
sg24
I59
sg8
g426
sg25
I6
sg12
I4
sg26
F171.18546493605982
sg27
I2
sg28
I24
ssI25
(dp452
g20
I420
sg21
I120
sg22
I410
sg23
I91
sg24
I59
sg8
g426
sg25
I6
sg12
I4
sg26
F171.42701871982672
sg27
I3
sg28
I25
ssI26
(dp453
g20
I660
sg21
I360
sg22
I679
sg23
I310
sg24
I29
sg8
g426
sg25
I6
sg12
I5
sg26
F171.59364934519772
sg27
I2
sg28
I26
ssI27
(dp454
g20
I660
sg21
I360
sg22
I670
sg23
I311
sg24
I29
sg8
g426
sg25
I6
sg12
I5
sg26
F171.84359528325467
sg27
I3
sg28
I27
ssI28
(dp455
g20
I900
sg21
I480
sg22
I901
sg23
I460
sg24
I15
sg8
g426
sg25
I6
sg12
I6
sg26
F172.01864718606748
sg27
I2
sg28
I28
ssI29
(dp456
g20
I900
sg21
I480
sg22
I907
sg23
I464
sg24
I15
sg8
g426
sg25
I6
sg12
I6
sg26
F172.27697791393894
sg27
I3
sg28
I29
ssI30
(dp457
g20
I900
sg21
I240
sg22
I876
sg23
I182
sg24
I47
sg8
g426
sg25
I6
sg12
I7
sg26
F172.46019132906713
sg27
I2
sg28
I30
ssI31
(dp458
g20
I900
sg21
I240
sg22
I874
sg23
I188
sg24
I47
sg8
g426
sg25
I6
sg12
I7
sg26
F172.71022396708213
sg27
I3
sg28
I31
ssI32
(dp459
g20
I660
sg21
I0
sg22
I684
sg23
I-20
sg24
I77
sg8
g426
sg25
I6
sg12
I8
sg26
F172.86854779912665
sg27
I2
sg28
I32
ssI33
(dp460
g20
I660
sg21
I0
sg22
I683
sg23
I-18
sg24
I77
sg8
g426
sg25
I6
sg12
I8
sg26
F173.12695752773243
sg27
I3
sg28
I33
ssI34
(dp461
g20
I780
sg21
I-120
sg22
I770
sg23
I-115
sg24
I94
sg8
g426
sg25
I6
sg12
I9
sg26
F173.29352321182205
sg27
I2
sg28
I34
ssI35
(dp462
g20
I780
sg21
I-120
sg22
I770
sg23
I-113
sg24
I94
sg8
g426
sg25
I6
sg12
I9
sg26
F173.54351467572542
sg27
I3
sg28
I35
ssI36
(dp463
g20
I420
sg21
I-240
sg22
I430
sg23
I-289
sg24
I107
sg8
g426
sg25
I6
sg12
I10
sg26
F173.71007132159548
sg27
I2
sg28
I36
sssg80
I35
sg81
I1920
sg82
S'trial06.png'
p464
sg84
VRightcluster 5->trial06.png
p465
sg86
S'results\\P035\\trial_png\\trial06.png'
p466
sg88
g89
sg234
I6
sg235
I16
sg236
(lp467
I0
aI0
aI0
aI0
aI1
aI0
aI0
aI0
aI2
aI0
aI0
aI3
aI0
aI0
aI0
aI3
aI1
aI0
aI1
aI0
aI0
aI0
aI1
aI0
aI0
aI3
aI0
aI0
aI0
aI3
aI0
aI0
aI0
aI0
aI0
aI0
aI0
aI0
aI0
aI0
aI0
aI0
aI0
aI0
aI0
aI0
aI0
aI3
aI1
aI0
aI0
aI0
aI1
aI0
aI1
aI1
aI0
aI0
aI0
aI3
aI0
aI0
aI0
aI0
aI0
aI0
aI1
aI0
aI0
aI0
aI0
aI0
aI0
aI3
aI0
aI0
aI0
aI3
aI0
aI0
aI0
aI0
aI0
aI0
aI0
aI1
aI0
aI0
aI0
aI0
aI0
aI0
aI0
aI0
aI3
aI0
aI1
aI0
aI0
aI0
aI0
aI0
aI0
aI1
aI0
aI0
aI0
aI3
aI0
aI0
aI0
aI0
aI0
aI0
aI0
aI0
aI0
aI0
aI0
aI0
aI0
aI2
aI0
aI0
aI0
aI2
aI0
aI0
aI0
aI1
aI0
aI1
aI0
aI0
aI1
aI0
aI0
aI0
aI0
aI2
aI0
aI0
aI0
aI2
asg238
I9
sg239
I30
sg240
I1080
ssI7
(dp468
g2
I7
sg3
g4
sg5
I2
sg6
g7
sg8
VLeftcluster 4
p469
sg10
g11
sg12
I10
sg13
g14
sg15
g16
sg17
(dp470
I1
(dp471
g20
I-60
sg21
I0
sg22
I-3
sg23
I5
sg24
I71
sg8
g469
sg25
I7
sg12
I0
sg26
F176.87634543941522
sg27
I0
sg28
I1
ssI2
(dp472
g20
I-60
sg21
I0
sg22
I-1
sg23
I4
sg24
I71
sg8
g469
sg25
I7
sg12
I0
sg26
F176.9679735709069
sg27
I0
sg28
I2
ssI3
(dp473
g20
I60
sg21
I0
sg22
I1
sg23
I1
sg24
I72
sg8
g469
sg25
I7
sg12
I0
sg26
F177.05963417303974
sg27
I0
sg28
I3
ssI4
(dp474
g20
I60
sg21
I-120
sg22
I54
sg23
I-107
sg24
I88
sg8
g469
sg25
I7
sg12
I0
sg26
F177.1513349450379
sg27
I1
sg28
I4
ssI5
(dp475
g20
I-60
sg21
I0
sg22
I-77
sg23
I-7
sg24
I71
sg8
g469
sg25
I7
sg12
I0
sg26
F177.31806030434063
sg27
I0
sg28
I5
ssI6
(dp476
g20
I-180
sg21
I0
sg22
I-145
sg23
I12
sg24
I70
sg8
g469
sg25
I7
sg12
I1
sg26
F177.40146566447356
sg27
I2
sg28
I6
ssI7
(dp477
g20
I-180
sg21
I0
sg22
I-152
sg23
I6
sg24
I70
sg8
g469
sg25
I7
sg12
I1
sg26
F177.65140591179943
sg27
I3
sg28
I7
ssI8
(dp478
g20
I-180
sg21
I360
sg22
I-206
sg23
I374
sg24
I22
sg8
g469
sg25
I7
sg12
I1
sg26
F177.80973476507688
sg27
I0
sg28
I8
ssI9
(dp479
g20
I-180
sg21
I360
sg22
I-208
sg23
I366
sg24
I22
sg8
g469
sg25
I7
sg12
I1
sg26
F177.8929446318666
sg27
I0
sg28
I9
ssI10
(dp480
g20
I-420
sg21
I360
sg22
I-404
sg23
I380
sg24
I20
sg8
g469
sg25
I7
sg12
I1
sg26
F177.97626295729242
sg27
I0
sg28
I10
ssI11
(dp481
g20
I-420
sg21
I360
sg22
I-405
sg23
I378
sg24
I20
sg8
g469
sg25
I7
sg12
I1
sg26
F178.05967233441152
sg27
I0
sg28
I11
ssI12
(dp482
g20
I-300
sg21
I360
sg22
I-335
sg23
I414
sg24
I21
sg8
g469
sg25
I7
sg12
I2
sg26
F178.14292237106656
sg27
I2
sg28
I12
ssI13
(dp483
g20
I-300
sg21
I360
sg22
I-336
sg23
I415
sg24
I21
sg8
g469
sg25
I7
sg12
I2
sg26
F178.38461038913238
sg27
I3
sg28
I13
ssI14
(dp484
g20
I-540
sg21
I120
sg22
I-552
sg23
I140
sg24
I51
sg8
g469
sg25
I7
sg12
I3
sg26
F178.5429720477996
sg27
I2
sg28
I14
ssI15
(dp485
g20
I-540
sg21
I120
sg22
I-550
sg23
I138
sg24
I51
sg8
g469
sg25
I7
sg12
I3
sg26
F178.78457169216244
sg27
I3
sg28
I15
ssI16
(dp486
g20
I-660
sg21
I480
sg22
I-628
sg23
I487
sg24
I2
sg8
g469
sg25
I7
sg12
I3
sg26
F178.94280246401968
sg27
I0
sg28
I16
ssI94
(dp487
g20
I-660
sg21
I480
sg22
I-667
sg23
I539
sg24
I2
sg8
g469
sg25
I7
sg12
I3
sg26
F179.6677282669316
sg27
I0
sg28
I94
ssI95
(dp488
g20
I-780
sg21
I480
sg22
I-759
sg23
I470
sg24
I1
sg8
g469
sg25
I7
sg12
I3
sg26
F179.75931355056764
sg27
I0
sg28
I95
ssI96
(dp489
g20
I-780
sg21
I360
sg22
I-734
sg23
I385
sg24
I17
sg8
g469
sg25
I7
sg12
I3
sg26
F179.84264627019456
sg27
I0
sg28
I96
ssI97
(dp490
g20
I-780
sg21
I360
sg22
I-732
sg23
I382
sg24
I17
sg8
g469
sg25
I7
sg12
I3
sg26
F179.92602150292896
sg27
I0
sg28
I97
ssI98
(dp491
g20
I-780
sg21
I240
sg22
I-804
sg23
I244
sg24
I33
sg8
g469
sg25
I7
sg12
I3
sg26
F180.00940410013845
sg27
I0
sg28
I98
ssI99
(dp492
g20
I-780
sg21
I240
sg22
I-797
sg23
I233
sg24
I33
sg8
g469
sg25
I7
sg12
I3
sg26
F180.10929751609683
sg27
I0
sg28
I99
ssI100
(dp493
g20
I-900
sg21
I480
sg22
I-886
sg23
I499
sg24
I0
sg8
g469
sg25
I7
sg12
I4
sg26
F180.2010548606545
sg27
I2
sg28
I100
ssI101
(dp494
g20
I-900
sg21
I480
sg22
I-885
sg23
I490
sg24
I0
sg8
g469
sg25
I7
sg12
I4
sg26
F180.45102657437428
sg27
I3
sg28
I101
ssI102
(dp495
g20
I-900
sg21
I360
sg22
I-893
sg23
I323
sg24
I16
sg8
g469
sg25
I7
sg12
I4
sg26
F180.6093875635438
sg27
I0
sg28
I102
ssI103
(dp496
g20
I-780
sg21
I120
sg22
I-787
sg23
I113
sg24
I49
sg8
g469
sg25
I7
sg12
I5
sg26
F180.69258136238795
sg27
I2
sg28
I103
ssI104
(dp497
g20
I-780
sg21
I120
sg22
I-792
sg23
I117
sg24
I49
sg8
g469
sg25
I7
sg12
I5
sg26
F180.934367461874
sg27
I3
sg28
I104
ssI105
(dp498
g20
I-900
sg21
I-120
sg22
I-883
sg23
I-91
sg24
I80
sg8
g469
sg25
I7
sg12
I6
sg26
F181.1009528961472
sg27
I2
sg28
I105
ssI106
(dp499
g20
I-900
sg21
I-120
sg22
I-881
sg23
I-93
sg24
I80
sg8
g469
sg25
I7
sg12
I6
sg26
F181.3509095461677
sg27
I3
sg28
I106
ssI107
(dp500
g20
I-540
sg21
I-240
sg22
I-542
sg23
I-265
sg24
I99
sg8
g469
sg25
I7
sg12
I7
sg26
F181.51757297692848
sg27
I2
sg28
I107
ssI108
(dp501
g20
I-540
sg21
I-240
sg22
I-540
sg23
I-268
sg24
I99
sg8
g469
sg25
I7
sg12
I7
sg26
F181.7676126446704
sg27
I3
sg28
I108
ssI109
(dp502
g20
I-660
sg21
I-480
sg22
I-707
sg23
I-454
sg24
I130
sg8
g469
sg25
I7
sg12
I8
sg26
F181.93416025232045
sg27
I2
sg28
I109
ssI110
(dp503
g20
I-660
sg21
I-480
sg22
I-701
sg23
I-428
sg24
I130
sg8
g469
sg25
I7
sg12
I8
sg26
F182.17583956691533
sg27
I3
sg28
I110
ssI111
(dp504
g20
I-900
sg21
I-480
sg22
I-905
sg23
I-443
sg24
I128
sg8
g469
sg25
I7
sg12
I9
sg26
F182.34247253552894
sg27
I2
sg28
I111
ssI112
(dp505
g20
I-900
sg21
I-480
sg22
I-905
sg23
I-442
sg24
I128
sg8
g469
sg25
I7
sg12
I9
sg26
F182.5924586434503
sg27
I3
sg28
I112
ssI113
(dp506
g20
I-300
sg21
I-480
sg22
I-345
sg23
I-439
sg24
I133
sg8
g469
sg25
I7
sg12
I10
sg26
F182.7507643990557
sg27
I2
sg28
I113
sssg80
I35
sg81
I1920
sg82
S'trial07.png'
p507
sg84
VLeftcluster 4->trial07.png
p508
sg86
S'results\\P035\\trial_png\\trial07.png'
p509
sg88
g89
sg234
I7
sg235
I16
sg236
(lp510
I3
aI0
aI0
aI2
aI0
aI0
aI0
aI0
aI0
aI0
aI0
aI0
aI0
aI0
aI0
aI1
aI0
aI0
aI2
aI0
aI0
aI3
aI0
aI2
aI0
aI1
aI0
aI1
aI0
aI1
aI0
aI0
aI0
aI0
aI0
aI0
aI0
aI0
aI0
aI0
aI0
aI0
aI0
aI0
aI0
aI0
aI0
aI0
aI0
aI3
aI0
aI3
aI0
aI0
aI0
aI0
aI0
aI1
aI0
aI0
aI1
aI0
aI0
aI1
aI0
aI0
aI0
aI0
aI0
aI0
aI3
aI0
aI0
aI0
aI0
aI0
aI0
aI0
aI0
aI0
aI3
aI0
aI0
aI0
aI0
aI0
aI0
aI0
aI1
aI0
aI1
aI0
aI1
aI0
aI1
aI0
aI0
aI0
aI0
aI3
aI0
aI2
aI0
aI0
aI0
aI0
aI0
aI0
aI0
aI0
aI0
aI0
aI0
aI0
aI0
aI0
aI0
aI0
aI0
aI2
aI0
aI0
aI0
aI0
aI1
aI0
aI1
aI0
aI3
aI0
aI3
aI0
aI0
aI3
aI0
aI0
aI0
aI0
aI1
aI0
aI0
aI0
aI0
aI1
asg238
I9
sg239
I30
sg240
I1080
ssI8
(dp511
g2
I8
sg3
g4
sg5
I2
sg6
g7
sg8
VLeftcluster 1
p512
sg10
g11
sg12
I10
sg13
g14
sg15
g16
sg17
(dp513
I1
(dp514
g20
I60
sg21
I0
sg22
I2
sg23
I7
sg24
I72
sg8
g512
sg25
I8
sg12
I0
sg26
F186.5418663722662
sg27
I1
sg28
I1
ssI2
(dp515
g20
I60
sg21
I0
sg22
I3
sg23
I13
sg24
I72
sg8
g512
sg25
I8
sg12
I0
sg26
F186.70855390494626
sg27
I1
sg28
I2
ssI3
(dp516
g20
I60
sg21
I0
sg22
I47
sg23
I12
sg24
I72
sg8
g512
sg25
I8
sg12
I0
sg26
F186.8836151807277
sg27
I1
sg28
I3
ssI4
(dp517
g20
I-180
sg21
I0
sg22
I-122
sg23
I23
sg24
I70
sg8
g512
sg25
I8
sg12
I1
sg26
F187.05013734746353
sg27
I2
sg28
I4
ssI5
(dp518
g20
I-180
sg21
I0
sg22
I-171
sg23
I26
sg24
I70
sg8
g512
sg25
I8
sg12
I1
sg26
F187.30029082982264
sg27
I3
sg28
I5
ssI6
(dp519
g20
I-300
sg21
I240
sg22
I-294
sg23
I271
sg24
I37
sg8
g512
sg25
I8
sg12
I2
sg26
F187.475135857831
sg27
I2
sg28
I6
ssI7
(dp520
g20
I-420
sg21
I360
sg22
I-415
sg23
I322
sg24
I20
sg8
g512
sg25
I8
sg12
I2
sg26
F187.72507041442623
sg27
I0
sg28
I7
ssI8
(dp521
g20
I-420
sg21
I360
sg22
I-440
sg23
I332
sg24
I20
sg8
g512
sg25
I8
sg12
I2
sg26
F187.8167169571061
sg27
I0
sg28
I8
ssI9
(dp522
g20
I-540
sg21
I360
sg22
I-564
sg23
I382
sg24
I19
sg8
g512
sg25
I8
sg12
I3
sg26
F187.90005302422196
sg27
I2
sg28
I9
ssI10
(dp523
g20
I-540
sg21
I360
sg22
I-560
sg23
I371
sg24
I19
sg8
g512
sg25
I8
sg12
I3
sg26
F188.15019043863504
sg27
I3
sg28
I10
ssI11
(dp524
g20
I-540
sg21
I0
sg22
I-562
sg23
I-17
sg24
I67
sg8
g512
sg25
I8
sg12
I4
sg26
F188.31675645747328
sg27
I2
sg28
I11
ssI12
(dp525
g20
I-540
sg21
I0
sg22
I-564
sg23
I-11
sg24
I67
sg8
g512
sg25
I8
sg12
I4
sg26
F188.57503831200893
sg27
I3
sg28
I12
ssI13
(dp526
g20
I-780
sg21
I0
sg22
I-783
sg23
I27
sg24
I65
sg8
g512
sg25
I8
sg12
I5
sg26
F188.74178810797957
sg27
I2
sg28
I13
ssI14
(dp527
g20
I-900
sg21
I360
sg22
I-879
sg23
I312
sg24
I16
sg8
g512
sg25
I8
sg12
I6
sg26
F188.9917049228843
sg27
I2
sg28
I14
ssI15
(dp528
g20
I-900
sg21
I360
sg22
I-900
sg23
I415
sg24
I16
sg8
g512
sg25
I8
sg12
I6
sg26
F189.2501421008974
sg27
I3
sg28
I15
ssI16
(dp529
g20
I-900
sg21
I360
sg22
I-900
sg23
I407
sg24
I16
sg8
g512
sg25
I8
sg12
I6
sg26
F189.4081941168556
sg27
I3
sg28
I16
ssI17
(dp530
g20
I-900
sg21
I-360
sg22
I-863
sg23
I-353
sg24
I112
sg8
g512
sg25
I8
sg12
I7
sg26
F189.57485721286776
sg27
I2
sg28
I17
ssI18
(dp531
g20
I-900
sg21
I-360
sg22
I-860
sg23
I-350
sg24
I112
sg8
g512
sg25
I8
sg12
I7
sg26
F189.82501370796672
sg27
I3
sg28
I18
ssI19
(dp532
g20
I-660
sg21
I-240
sg22
I-644
sg23
I-256
sg24
I98
sg8
g512
sg25
I8
sg12
I8
sg26
F189.99163696886262
sg27
I2
sg28
I19
ssI20
(dp533
g20
I-660
sg21
I-240
sg22
I-640
sg23
I-251
sg24
I98
sg8
g512
sg25
I8
sg12
I8
sg26
F190.2332864908076
sg27
I3
sg28
I20
ssI21
(dp534
g20
I-420
sg21
I-240
sg22
I-410
sg23
I-258
sg24
I100
sg8
g512
sg25
I8
sg12
I9
sg26
F190.40817269292756
sg27
I2
sg28
I21
ssI22
(dp535
g20
I-420
sg21
I-240
sg22
I-410
sg23
I-256
sg24
I100
sg8
g512
sg25
I8
sg12
I9
sg26
F190.65823646258832
sg27
I3
sg28
I22
ssI23
(dp536
g20
I-660
sg21
I-480
sg22
I-600
sg23
I-436
sg24
I130
sg8
g512
sg25
I8
sg12
I10
sg26
F190.8247813922476
sg27
I2
sg28
I23
sssg80
I35
sg81
I1920
sg82
S'trial08.png'
p537
sg84
VLeftcluster 1->trial08.png
p538
sg86
S'results\\P035\\trial_png\\trial08.png'
p539
sg88
g89
sg234
I8
sg235
I16
sg236
(lp540
I0
aI0
aI0
aI0
aI0
aI0
aI2
aI0
aI0
aI1
aI0
aI0
aI0
aI0
aI0
aI1
aI3
aI0
aI0
aI3
aI0
aI0
aI0
aI0
aI0
aI0
aI0
aI0
aI1
aI0
aI0
aI0
aI0
aI0
aI0
aI0
aI0
aI3
aI0
aI2
aI0
aI0
aI1
aI0
aI0
aI0
aI0
aI0
aI0
aI0
aI0
aI0
aI0
aI0
aI0
aI0
aI0
aI0
aI0
aI0
aI1
aI0
aI1
aI0
aI0
aI3
aI0
aI3
aI0
aI0
aI3
aI0
aI1
aI0
aI1
aI0
aI0
aI0
aI0
aI0
aI0
aI0
aI0
aI0
aI0
aI0
aI0
aI0
aI0
aI0
aI0
aI0
aI0
aI1
aI0
aI1
aI0
aI0
aI3
aI0
aI3
aI0
aI0
aI2
aI0
aI1
aI0
aI1
aI0
aI0
aI0
aI0
aI3
aI0
aI0
aI0
aI0
aI0
aI0
aI0
aI0
aI0
aI0
aI0
aI0
aI0
aI0
aI0
aI0
aI0
aI3
aI0
aI2
aI0
aI2
aI0
aI0
aI0
aI1
aI0
aI0
aI1
aI0
aI1
asg238
I9
sg239
I30
sg240
I1080
ssI9
(dp541
g2
I9
sg3
g4
sg5
I2
sg6
g7
sg8
VRightcluster 3
p542
sg10
g11
sg12
I10
sg13
g14
sg15
g16
sg17
(dp543
I1
(dp544
g20
I-60
sg21
I0
sg22
I-3
sg23
I4
sg24
I71
sg8
g542
sg25
I9
sg12
I0
sg26
F194.09932032588495
sg27
I0
sg28
I1
ssI2
(dp545
g20
I-60
sg21
I0
sg22
I0
sg23
I6
sg24
I71
sg8
g542
sg25
I9
sg12
I0
sg26
F194.1993068020306
sg27
I0
sg28
I2
ssI3
(dp546
g20
I60
sg21
I0
sg22
I2
sg23
I4
sg24
I72
sg8
g542
sg25
I9
sg12
I0
sg26
F194.29114013458275
sg27
I0
sg28
I3
ssI4
(dp547
g20
I-180
sg21
I120
sg22
I-211
sg23
I147
sg24
I54
sg8
g542
sg25
I9
sg12
I0
sg26
F194.38266884565883
sg27
I1
sg28
I4
ssI5
(dp548
g20
I-180
sg21
I120
sg22
I-214
sg23
I141
sg24
I54
sg8
g542
sg25
I9
sg12
I0
sg26
F194.54938416249524
sg27
I1
sg28
I5
ssI6
(dp549
g20
I-180
sg21
I120
sg22
I-216
sg23
I143
sg24
I54
sg8
g542
sg25
I9
sg12
I0
sg26
F194.71597896973708
sg27
I1
sg28
I6
ssI7
(dp550
g20
I-420
sg21
I240
sg22
I-420
sg23
I268
sg24
I36
sg8
g542
sg25
I9
sg12
I0
sg26
F194.87442900210726
sg27
I1
sg28
I7
ssI8
(dp551
g20
I-420
sg21
I240
sg22
I-421
sg23
I264
sg24
I36
sg8
g542
sg25
I9
sg12
I0
sg26
F195.0409274016729
sg27
I1
sg28
I8
ssI9
(dp552
g20
I-180
sg21
I480
sg22
I-187
sg23
I540
sg24
I6
sg8
g542
sg25
I9
sg12
I0
sg26
F195.21598399097002
sg27
I1
sg28
I9
ssI10
(dp553
g20
I-180
sg21
I480
sg22
I-188
sg23
I540
sg24
I6
sg8
g542
sg25
I9
sg12
I0
sg26
F195.38250515345908
sg27
I1
sg28
I10
ssI11
(dp554
g20
I60
sg21
I360
sg22
I32
sg23
I379
sg24
I24
sg8
g542
sg25
I9
sg12
I0
sg26
F195.54923452974845
sg27
I0
sg28
I11
ssI12
(dp555
g20
I60
sg21
I240
sg22
I104
sg23
I297
sg24
I40
sg8
g542
sg25
I9
sg12
I1
sg26
F195.64081345315572
sg27
I2
sg28
I12
ssI13
(dp556
g20
I60
sg21
I240
sg22
I87
sg23
I235
sg24
I40
sg8
g542
sg25
I9
sg12
I1
sg26
F195.89096091003512
sg27
I3
sg28
I13
ssI14
(dp557
g20
I180
sg21
I480
sg22
I223
sg23
I434
sg24
I9
sg8
g542
sg25
I9
sg12
I1
sg26
F196.05755103079264
sg27
I0
sg28
I14
ssI15
(dp558
g20
I300
sg21
I480
sg22
I295
sg23
I505
sg24
I10
sg8
g542
sg25
I9
sg12
I2
sg26
F196.14924979429725
sg27
I2
sg28
I15
ssI16
(dp559
g20
I300
sg21
I480
sg22
I296
sg23
I514
sg24
I10
sg8
g542
sg25
I9
sg12
I2
sg26
F196.3992225122638
sg27
I3
sg28
I16
ssI17
(dp560
g20
I540
sg21
I240
sg22
I594
sg23
I218
sg24
I44
sg8
g542
sg25
I9
sg12
I3
sg26
F196.590907417165
sg27
I2
sg28
I17
ssI18
(dp561
g20
I540
sg21
I240
sg22
I527
sg23
I222
sg24
I44
sg8
g542
sg25
I9
sg12
I3
sg26
F196.857437149225
sg27
I3
sg28
I18
ssI19
(dp562
g20
I300
sg21
I0
sg22
I342
sg23
I39
sg24
I74
sg8
g542
sg25
I9
sg12
I4
sg26
F197.0323762416674
sg27
I2
sg28
I19
ssI20
(dp563
g20
I300
sg21
I0
sg22
I338
sg23
I33
sg24
I74
sg8
g542
sg25
I9
sg12
I4
sg26
F197.28240921443148
sg27
I3
sg28
I20
ssI21
(dp564
g20
I540
sg21
I0
sg22
I507
sg23
I11
sg24
I76
sg8
g542
sg25
I9
sg12
I5
sg26
F197.4573114844975
sg27
I2
sg28
I21
ssI22
(dp565
g20
I540
sg21
I0
sg22
I509
sg23
I16
sg24
I76
sg8
g542
sg25
I9
sg12
I5
sg26
F197.7158243157569
sg27
I3
sg28
I22
ssI23
(dp566
g20
I300
sg21
I-120
sg22
I263
sg23
I-179
sg24
I90
sg8
g542
sg25
I9
sg12
I5
sg26
F197.8824157755098
sg27
I0
sg28
I23
ssI24
(dp567
g20
I180
sg21
I-240
sg22
I215
sg23
I-214
sg24
I105
sg8
g542
sg25
I9
sg12
I6
sg26
F197.98221345328966
sg27
I2
sg28
I24
ssI25
(dp568
g20
I180
sg21
I-240
sg22
I213
sg23
I-213
sg24
I105
sg8
g542
sg25
I9
sg12
I6
sg26
F198.2239359504897
sg27
I3
sg28
I25
ssI26
(dp569
g20
I660
sg21
I-240
sg22
I685
sg23
I-213
sg24
I109
sg8
g542
sg25
I9
sg12
I7
sg26
F198.39049862183901
sg27
I2
sg28
I26
ssI27
(dp570
g20
I660
sg21
I-240
sg22
I681
sg23
I-211
sg24
I109
sg8
g542
sg25
I9
sg12
I7
sg26
F198.6406360362521
sg27
I3
sg28
I27
ssI28
(dp571
g20
I780
sg21
I-240
sg22
I837
sg23
I-195
sg24
I110
sg8
g542
sg25
I9
sg12
I7
sg26
F198.79891969843175
sg27
I0
sg28
I28
ssI29
(dp572
g20
I900
sg21
I-240
sg22
I899
sg23
I-181
sg24
I111
sg8
g542
sg25
I9
sg12
I8
sg26
F198.89055318590545
sg27
I2
sg28
I29
ssI30
(dp573
g20
I900
sg21
I-120
sg22
I894
sg23
I-180
sg24
I95
sg8
g542
sg25
I9
sg12
I8
sg26
F199.1405315946031
sg27
I0
sg28
I30
ssI31
(dp574
g20
I780
sg21
I120
sg22
I777
sg23
I65
sg24
I62
sg8
g542
sg25
I9
sg12
I8
sg26
F199.23217880678112
sg27
I0
sg28
I31
ssI32
(dp575
g20
I780
sg21
I120
sg22
I778
sg23
I68
sg24
I62
sg8
g542
sg25
I9
sg12
I8
sg26
F199.3237577301884
sg27
I0
sg28
I32
ssI33
(dp576
g20
I780
sg21
I120
sg22
I778
sg23
I61
sg24
I62
sg8
g542
sg25
I9
sg12
I8
sg26
F199.40706266565894
sg27
I0
sg28
I33
ssI34
(dp577
g20
I780
sg21
I120
sg22
I781
sg23
I62
sg24
I62
sg8
g542
sg25
I9
sg12
I8
sg26
F199.49895290552013
sg27
I0
sg28
I34
ssI35
(dp578
g20
I780
sg21
I120
sg22
I780
sg23
I62
sg24
I62
sg8
g542
sg25
I9
sg12
I8
sg26
F199.59050839650627
sg27
I0
sg28
I35
ssI36
(dp579
g20
I780
sg21
I120
sg22
I779
sg23
I63
sg24
I62
sg8
g542
sg25
I9
sg12
I8
sg26
F199.67374939494175
sg27
I0
sg28
I36
ssI37
(dp580
g20
I780
sg21
I120
sg22
I781
sg23
I66
sg24
I62
sg8
g542
sg25
I9
sg12
I8
sg26
F199.76546322214563
sg27
I0
sg28
I37
ssI38
(dp581
g20
I780
sg21
I120
sg22
I781
sg23
I63
sg24
I62
sg8
g542
sg25
I9
sg12
I8
sg26
F199.8490336134737
sg27
I0
sg28
I38
ssI39
(dp582
g20
I780
sg21
I120
sg22
I783
sg23
I66
sg24
I62
sg8
g542
sg25
I9
sg12
I8
sg26
F199.94044549719274
sg27
I0
sg28
I39
ssI40
(dp583
g20
I780
sg21
I240
sg22
I778
sg23
I241
sg24
I46
sg8
g542
sg25
I9
sg12
I9
sg26
F200.02376516161348
sg27
I2
sg28
I40
ssI41
(dp584
g20
I780
sg21
I240
sg22
I771
sg23
I234
sg24
I46
sg8
g542
sg25
I9
sg12
I9
sg26
F200.27379445214
sg27
I3
sg28
I41
ssI42
(dp585
g20
I780
sg21
I480
sg22
I753
sg23
I420
sg24
I14
sg8
g542
sg25
I9
sg12
I9
sg26
F200.44042608175778
sg27
I0
sg28
I42
ssI43
(dp586
g20
I660
sg21
I480
sg22
I712
sg23
I513
sg24
I13
sg8
g542
sg25
I9
sg12
I10
sg26
F200.5320347978154
sg27
I2
sg28
I43
sssg80
I35
sg81
I1920
sg82
S'trial09.png'
p587
sg84
VRightcluster 3->trial09.png
p588
sg86
S'results\\P035\\trial_png\\trial09.png'
p589
sg88
g89
sg234
I9
sg235
I16
sg236
(lp590
I0
aI0
aI1
aI0
aI0
aI0
aI1
aI0
aI0
aI0
aI3
aI0
aI0
aI3
aI0
aI2
aI1
aI0
aI0
aI0
aI0
aI0
aI0
aI0
aI0
aI0
aI0
aI0
aI0
aI0
aI0
aI0
aI0
aI0
aI1
aI0
aI1
aI0
aI0
aI0
aI3
aI0
aI0
aI0
aI3
aI0
aI3
aI0
aI0
aI0
aI0
aI0
aI0
aI0
aI1
aI0
aI0
aI0
aI0
aI0
aI0
aI0
aI0
aI0
aI1
aI0
aI1
aI0
aI0
aI0
aI0
aI0
aI0
aI0
aI3
aI0
aI3
aI0
aI2
aI0
aI0
aI0
aI0
aI0
aI1
aI0
aI0
aI1
aI0
aI0
aI0
aI0
aI0
aI0
aI0
aI0
aI0
aI0
aI1
aI0
aI0
aI0
aI0
aI0
aI0
aI3
aI0
aI0
aI0
aI3
aI0
aI3
aI1
aI0
aI0
aI0
aI0
aI1
aI0
aI0
aI0
aI0
aI0
aI0
aI0
aI0
aI0
aI0
aI0
aI0
aI0
aI1
aI0
aI0
aI0
aI1
aI0
aI0
aI2
aI0
aI2
aI0
aI0
aI2
asg238
I9
sg239
I30
sg240
I1080
ssI10
(dp591
g2
I10
sg3
g4
sg5
I2
sg6
g7
sg8
VLeftcluster 3
p592
sg10
g11
sg12
I10
sg13
g14
sg15
g16
sg17
(dp593
I1
(dp594
g20
I-60
sg21
I0
sg22
I-6
sg23
I0
sg24
I71
sg8
g592
sg25
I10
sg12
I0
sg26
F203.6565828031471
sg27
I0
sg28
I1
ssI2
(dp595
g20
I-60
sg21
I0
sg22
I-7
sg23
I0
sg24
I71
sg8
g592
sg25
I10
sg12
I0
sg26
F203.74824943075964
sg27
I0
sg28
I2
ssI3
(dp596
g20
I-60
sg21
I0
sg22
I-6
sg23
I1
sg24
I71
sg8
g592
sg25
I10
sg12
I0
sg26
F203.8399749741743
sg27
I0
sg28
I3
ssI4
(dp597
g20
I-60
sg21
I0
sg22
I-5
sg23
I1
sg24
I71
sg8
g592
sg25
I10
sg12
I0
sg26
F203.93171156430162
sg27
I0
sg28
I4
ssI5
(dp598
g20
I-60
sg21
I0
sg22
I-5
sg23
I0
sg24
I71
sg8
g592
sg25
I10
sg12
I0
sg26
F204.02330186917106
sg27
I0
sg28
I5
ssI6
(dp599
g20
I-60
sg21
I0
sg22
I-6
sg23
I1
sg24
I71
sg8
g592
sg25
I10
sg12
I0
sg26
F204.12329604454044
sg27
I0
sg28
I6
ssI7
(dp600
g20
I-60
sg21
I120
sg22
I-50
sg23
I168
sg24
I55
sg8
g592
sg25
I10
sg12
I0
sg26
F204.2148120351594
sg27
I0
sg28
I7
ssI8
(dp601
g20
I-60
sg21
I120
sg22
I-54
sg23
I169
sg24
I55
sg8
g592
sg25
I10
sg12
I0
sg26
F204.30654862528718
sg27
I0
sg28
I8
ssI9
(dp602
g20
I-60
sg21
I-120
sg22
I-65
sg23
I-135
sg24
I87
sg8
g592
sg25
I10
sg12
I0
sg26
F204.40649258832536
sg27
I1
sg28
I9
ssI10
(dp603
g20
I-60
sg21
I-120
sg22
I-64
sg23
I-132
sg24
I87
sg8
g592
sg25
I10
sg12
I0
sg26
F204.57330029585137
sg27
I1
sg28
I10
ssI11
(dp604
g20
I-60
sg21
I-120
sg22
I-64
sg23
I-128
sg24
I87
sg8
g592
sg25
I10
sg12
I0
sg26
F204.74819319294875
sg27
I1
sg28
I11
ssI12
(dp605
g20
I-180
sg21
I240
sg22
I-161
sg23
I221
sg24
I38
sg8
g592
sg25
I10
sg12
I0
sg26
F204.92312123867805
sg27
I0
sg28
I12
ssI13
(dp606
g20
I-60
sg21
I240
sg22
I-64
sg23
I258
sg24
I39
sg8
g592
sg25
I10
sg12
I1
sg26
F205.0148434346038
sg27
I2
sg28
I13
ssI14
(dp607
g20
I-60
sg21
I240
sg22
I-63
sg23
I251
sg24
I39
sg8
g592
sg25
I10
sg12
I1
sg26
F205.27318755243004
sg27
I3
sg28
I14
ssI15
(dp608
g20
I-300
sg21
I120
sg22
I-274
sg23
I120
sg24
I53
sg8
g592
sg25
I10
sg12
I2
sg26
F205.431470545112
sg27
I2
sg28
I15
ssI16
(dp609
g20
I-300
sg21
I120
sg22
I-278
sg23
I120
sg24
I53
sg8
g592
sg25
I10
sg12
I2
sg26
F205.6814533055449
sg27
I3
sg28
I16
ssI17
(dp610
g20
I-420
sg21
I240
sg22
I-427
sg23
I237
sg24
I36
sg8
g592
sg25
I10
sg12
I3
sg26
F205.85644060182494
sg27
I2
sg28
I17
ssI18
(dp611
g20
I-420
sg21
I240
sg22
I-447
sg23
I261
sg24
I36
sg8
g592
sg25
I10
sg12
I3
sg26
F206.09808476778835
sg27
I3
sg28
I18
ssI19
(dp612
g20
I-420
sg21
I240
sg22
I-452
sg23
I267
sg24
I36
sg8
g592
sg25
I10
sg12
I3
sg26
F206.2564440832134
sg27
I3
sg28
I19
ssI20
(dp613
g20
I-420
sg21
I240
sg22
I-451
sg23
I268
sg24
I36
sg8
g592
sg25
I10
sg12
I3
sg26
F206.4146825542948
sg27
I3
sg28
I20
ssI21
(dp614
g20
I-660
sg21
I240
sg22
I-679
sg23
I280
sg24
I34
sg8
g592
sg25
I10
sg12
I4
sg26
F206.57311752296573
sg27
I2
sg28
I21
ssI22
(dp615
g20
I-660
sg21
I240
sg22
I-679
sg23
I277
sg24
I34
sg8
g592
sg25
I10
sg12
I4
sg26
F206.81465691253106
sg27
I3
sg28
I22
ssI87
(dp616
g20
I-900
sg21
I480
sg22
I-874
sg23
I535
sg24
I0
sg8
g592
sg25
I10
sg12
I5
sg26
F207.51452006719092
sg27
I2
sg28
I87
ssI88
(dp617
g20
I-900
sg21
I480
sg22
I-891
sg23
I525
sg24
I0
sg8
g592
sg25
I10
sg12
I5
sg26
F207.7645219083097
sg27
I3
sg28
I88
ssI89
(dp618
g20
I-900
sg21
I120
sg22
I-862
sg23
I85
sg24
I48
sg8
g592
sg25
I10
sg12
I6
sg26
F207.931157220165
sg27
I2
sg28
I89
ssI90
(dp619
g20
I-900
sg21
I120
sg22
I-862
sg23
I83
sg24
I48
sg8
g592
sg25
I10
sg12
I6
sg26
F208.18110583621274
sg27
I3
sg28
I90
ssI91
(dp620
g20
I-660
sg21
I0
sg22
I-685
sg23
I-23
sg24
I66
sg8
g592
sg25
I10
sg12
I7
sg26
F208.34774081331943
sg27
I2
sg28
I91
ssI92
(dp621
g20
I-660
sg21
I0
sg22
I-688
sg23
I-17
sg24
I66
sg8
g592
sg25
I10
sg12
I7
sg26
F208.5977731165858
sg27
I3
sg28
I92
ssI93
(dp622
g20
I-900
sg21
I-120
sg22
I-884
sg23
I-134
sg24
I80
sg8
g592
sg25
I10
sg12
I8
sg26
F208.76447270022527
sg27
I2
sg28
I93
ssI94
(dp623
g20
I-900
sg21
I-120
sg22
I-886
sg23
I-133
sg24
I80
sg8
g592
sg25
I10
sg12
I8
sg26
F209.01446249038463
sg27
I3
sg28
I94
ssI95
(dp624
g20
I-660
sg21
I-240
sg22
I-697
sg23
I-214
sg24
I98
sg8
g592
sg25
I10
sg12
I9
sg26
F209.1892870987117
sg27
I2
sg28
I95
ssI96
(dp625
g20
I-660
sg21
I-240
sg22
I-692
sg23
I-212
sg24
I98
sg8
g592
sg25
I10
sg12
I9
sg26
F209.43932844019764
sg27
I3
sg28
I96
ssI97
(dp626
g20
I-900
sg21
I-360
sg22
I-882
sg23
I-309
sg24
I112
sg8
g592
sg25
I10
sg12
I10
sg26
F209.6142216720441
sg27
I2
sg28
I97
sssg80
I35
sg81
I1920
sg82
S'trial10.png'
p627
sg84
VLeftcluster 3->trial10.png
p628
sg86
S'results\\P035\\trial_png\\trial10.png'
p629
sg88
g89
sg234
I10
sg235
I16
sg236
(lp630
I3
aI0
aI2
aI0
aI0
aI2
aI0
aI0
aI1
aI0
aI0
aI0
aI0
aI0
aI0
aI1
aI0
aI0
aI0
aI0
aI0
aI0
aI0
aI0
aI0
aI0
aI0
aI0
aI1
aI0
aI0
aI0
aI0
aI0
aI3
aI0
aI3
aI0
aI0
aI3
aI0
aI0
aI1
aI0
aI0
aI0
aI0
aI1
aI3
aI0
aI0
aI0
aI0
aI3
aI0
aI0
aI0
aI0
aI0
aI0
aI0
aI1
aI0
aI0
aI0
aI0
aI3
aI0
aI2
aI0
aI0
aI0
aI0
aI1
aI0
aI0
aI0
aI0
aI0
aI0
aI3
aI0
aI0
aI0
aI0
aI0
aI0
aI1
aI0
aI0
aI0
aI0
aI1
aI0
aI1
aI0
aI0
aI0
aI3
aI0
aI0
aI0
aI0
aI0
aI0
aI0
aI1
aI0
aI0
aI0
aI0
aI0
aI3
aI0
aI0
aI0
aI0
aI2
aI0
aI1
aI0
aI0
aI0
aI0
aI0
aI0
aI0
aI0
aI0
aI0
aI0
aI2
aI0
aI0
aI0
aI0
aI0
aI0
aI1
aI0
aI1
aI0
aI0
aI1
asg238
I9
sg239
I30
sg240
I1080
ssI11
(dp631
g2
I11
sg3
g4
sg5
I2
sg6
g7
sg8
VTrial 10
p632
sg10
g11
sg12
I10
sg13
g14
sg15
g16
sg17
(dp633
I1
(dp634
g20
I-60
sg21
I0
sg22
I-8
sg23
I2
sg24
I71
sg8
g632
sg25
I11
sg12
I0
sg26
F212.64729151337997
sg27
I0
sg28
I1
ssI2
(dp635
g20
I-60
sg21
I0
sg22
I-8
sg23
I3
sg24
I71
sg8
g632
sg25
I11
sg12
I0
sg26
F212.73891964487166
sg27
I0
sg28
I2
ssI3
(dp636
g20
I-60
sg21
I0
sg22
I-10
sg23
I2
sg24
I71
sg8
g632
sg25
I11
sg12
I0
sg26
F212.83066594271668
sg27
I0
sg28
I3
ssI4
(dp637
g20
I-180
sg21
I120
sg22
I-196
sg23
I127
sg24
I54
sg8
g632
sg25
I11
sg12
I0
sg26
F212.9221976665326
sg27
I1
sg28
I4
ssI5
(dp638
g20
I-180
sg21
I120
sg22
I-200
sg23
I126
sg24
I54
sg8
g632
sg25
I11
sg12
I0
sg26
F213.09723919213047
sg27
I1
sg28
I5
ssI6
(dp639
g20
I-180
sg21
I120
sg22
I-234
sg23
I136
sg24
I54
sg8
g632
sg25
I11
sg12
I0
sg26
F213.27210564406687
sg27
I1
sg28
I6
ssI7
(dp640
g20
I-300
sg21
I120
sg22
I-317
sg23
I162
sg24
I53
sg8
g632
sg25
I11
sg12
I1
sg26
F213.43884171533364
sg27
I2
sg28
I7
ssI8
(dp641
g20
I-300
sg21
I120
sg22
I-317
sg23
I162
sg24
I53
sg8
g632
sg25
I11
sg12
I1
sg26
F213.68885359891874
sg27
I3
sg28
I8
ssI9
(dp642
g20
I-420
sg21
I360
sg22
I-451
sg23
I418
sg24
I20
sg8
g632
sg25
I11
sg12
I1
sg26
F213.85552506365275
sg27
I1
sg28
I9
ssI10
(dp643
g20
I-420
sg21
I480
sg22
I-453
sg23
I420
sg24
I4
sg8
g632
sg25
I11
sg12
I1
sg26
F214.03901096436493
sg27
I0
sg28
I10
ssI11
(dp644
g20
I-420
sg21
I480
sg22
I-452
sg23
I424
sg24
I4
sg8
g632
sg25
I11
sg12
I1
sg26
F214.13876512479146
sg27
I0
sg28
I11
ssI12
(dp645
g20
I-540
sg21
I360
sg22
I-573
sg23
I404
sg24
I19
sg8
g632
sg25
I11
sg12
I2
sg26
F214.23049100295475
sg27
I2
sg28
I12
ssI13
(dp646
g20
I-540
sg21
I360
sg22
I-586
sg23
I362
sg24
I19
sg8
g632
sg25
I11
sg12
I2
sg26
F214.48053368343608
sg27
I3
sg28
I13
ssI14
(dp647
g20
I-660
sg21
I0
sg22
I-643
sg23
I19
sg24
I66
sg8
g632
sg25
I11
sg12
I2
sg26
F214.65527929102882
sg27
I0
sg28
I14
ssI15
(dp648
g20
I-660
sg21
I0
sg22
I-653
sg23
I35
sg24
I66
sg8
g632
sg25
I11
sg12
I2
sg26
F214.74698173677098
sg27
I0
sg28
I15
ssI16
(dp649
g20
I-660
sg21
I120
sg22
I-686
sg23
I122
sg24
I50
sg8
g632
sg25
I11
sg12
I3
sg26
F214.8470137387635
sg27
I2
sg28
I16
ssI17
(dp650
g20
I-660
sg21
I120
sg22
I-681
sg23
I119
sg24
I50
sg8
g632
sg25
I11
sg12
I3
sg26
F215.10527584311558
sg27
I3
sg28
I17
ssI18
(dp651
g20
I-780
sg21
I480
sg22
I-815
sg23
I467
sg24
I1
sg8
g632
sg25
I11
sg12
I3
sg26
F215.27192354067938
sg27
I0
sg28
I18
ssI19
(dp652
g20
I-780
sg21
I480
sg22
I-819
sg23
I461
sg24
I1
sg8
g632
sg25
I11
sg12
I3
sg26
F215.36360857948011
sg27
I0
sg28
I19
ssI20
(dp653
g20
I-780
sg21
I480
sg22
I-822
sg23
I459
sg24
I1
sg8
g632
sg25
I11
sg12
I3
sg26
F215.4552564611554
sg27
I0
sg28
I20
ssI50
(dp654
g20
I-900
sg21
I480
sg22
I-883
sg23
I540
sg24
I0
sg8
g632
sg25
I11
sg12
I4
sg26
F215.80533884285387
sg27
I2
sg28
I50
ssI51
(dp655
g20
I-900
sg21
I480
sg22
I-880
sg23
I539
sg24
I0
sg8
g632
sg25
I11
sg12
I4
sg26
F216.06360898117873
sg27
I3
sg28
I51
ssI52
(dp656
g20
I-900
sg21
I120
sg22
I-884
sg23
I89
sg24
I48
sg8
g632
sg25
I11
sg12
I4
sg26
F216.23841752155977
sg27
I1
sg28
I52
ssI53
(dp657
g20
I-900
sg21
I120
sg22
I-887
sg23
I94
sg24
I48
sg8
g632
sg25
I11
sg12
I4
sg26
F216.4052791236545
sg27
I1
sg28
I53
ssI54
(dp658
g20
I-900
sg21
I120
sg22
I-890
sg23
I92
sg24
I48
sg8
g632
sg25
I11
sg12
I4
sg26
F216.571890333591
sg27
I1
sg28
I54
ssI55
(dp659
g20
I-900
sg21
I-120
sg22
I-882
sg23
I-142
sg24
I80
sg8
g632
sg25
I11
sg12
I5
sg26
F216.73020914440212
sg27
I2
sg28
I55
ssI56
(dp660
g20
I-900
sg21
I-120
sg22
I-896
sg23
I-129
sg24
I80
sg8
g632
sg25
I11
sg12
I5
sg26
F216.9800509755587
sg27
I3
sg28
I56
ssI57
(dp661
g20
I-900
sg21
I-480
sg22
I-913
sg23
I-428
sg24
I128
sg8
g632
sg25
I11
sg12
I5
sg26
F217.15511057759613
sg27
I1
sg28
I57
ssI58
(dp662
g20
I-900
sg21
I-480
sg22
I-906
sg23
I-424
sg24
I128
sg8
g632
sg25
I11
sg12
I5
sg26
F217.32182053845054
sg27
I1
sg28
I58
ssI59
(dp663
g20
I-900
sg21
I-480
sg22
I-908
sg23
I-421
sg24
I128
sg8
g632
sg25
I11
sg12
I5
sg26
F217.48006503501165
sg27
I1
sg28
I59
ssI60
(dp664
g20
I-660
sg21
I-360
sg22
I-633
sg23
I-369
sg24
I114
sg8
g632
sg25
I11
sg12
I6
sg26
F217.6384414226295
sg27
I2
sg28
I60
ssI61
(dp665
g20
I-660
sg21
I-360
sg22
I-630
sg23
I-331
sg24
I114
sg8
g632
sg25
I11
sg12
I6
sg26
F217.8800229905528
sg27
I3
sg28
I61
ssI62
(dp666
g20
I-540
sg21
I-120
sg22
I-521
sg23
I-69
sg24
I83
sg8
g632
sg25
I11
sg12
I6
sg26
F218.0384037299059
sg27
I1
sg28
I62
ssI63
(dp667
g20
I-540
sg21
I-120
sg22
I-525
sg23
I-68
sg24
I83
sg8
g632
sg25
I11
sg12
I6
sg26
F218.1966348365122
sg27
I1
sg28
I63
ssI64
(dp668
g20
I-540
sg21
I-120
sg22
I-533
sg23
I-71
sg24
I83
sg8
g632
sg25
I11
sg12
I6
sg26
F218.35496268554334
sg27
I1
sg28
I64
ssI65
(dp669
g20
I-300
sg21
I-240
sg22
I-328
sg23
I-222
sg24
I101
sg8
g632
sg25
I11
sg12
I7
sg26
F218.5216565784517
sg27
I2
sg28
I65
ssI66
(dp670
g20
I-300
sg21
I-240
sg22
I-324
sg23
I-223
sg24
I101
sg8
g632
sg25
I11
sg12
I7
sg26
F218.76317655258208
sg27
I3
sg28
I66
ssI67
(dp671
g20
I-180
sg21
I-360
sg22
I-212
sg23
I-346
sg24
I118
sg8
g632
sg25
I11
sg12
I7
sg26
F218.92986442001074
sg27
I1
sg28
I67
ssI68
(dp672
g20
I-180
sg21
I-360
sg22
I-209
sg23
I-350
sg24
I118
sg8
g632
sg25
I11
sg12
I7
sg26
F219.08826892653406
sg27
I1
sg28
I68
ssI69
(dp673
g20
I-180
sg21
I-360
sg22
I-208
sg23
I-350
sg24
I118
sg8
g632
sg25
I11
sg12
I7
sg26
F219.25487913222378
sg27
I1
sg28
I69
ssI70
(dp674
g20
I-180
sg21
I-360
sg22
I-206
sg23
I-350
sg24
I118
sg8
g632
sg25
I11
sg12
I7
sg26
F219.4132387823979
sg27
I1
sg28
I70
ssI71
(dp675
g20
I60
sg21
I-480
sg22
I34
sg23
I-434
sg24
I136
sg8
g632
sg25
I11
sg12
I8
sg26
F219.5797817035641
sg27
I2
sg28
I71
ssI72
(dp676
g20
I60
sg21
I-480
sg22
I37
sg23
I-432
sg24
I136
sg8
g632
sg25
I11
sg12
I8
sg26
F219.8297393578314
sg27
I3
sg28
I72
ssI73
(dp677
g20
I180
sg21
I-240
sg22
I181
sg23
I-206
sg24
I105
sg8
g632
sg25
I11
sg12
I8
sg26
F219.99643827197315
sg27
I1
sg28
I73
ssI74
(dp678
g20
I180
sg21
I-240
sg22
I180
sg23
I-207
sg24
I105
sg8
g632
sg25
I11
sg12
I8
sg26
F220.16301265953325
sg27
I1
sg28
I74
ssI75
(dp679
g20
I180
sg21
I-240
sg22
I181
sg23
I-206
sg24
I105
sg8
g632
sg25
I11
sg12
I8
sg26
F220.32972462888074
sg27
I1
sg28
I75
ssI76
(dp680
g20
I300
sg21
I0
sg22
I248
sg23
I39
sg24
I74
sg8
g632
sg25
I11
sg12
I9
sg26
F220.49644597119686
sg27
I2
sg28
I76
ssI77
(dp681
g20
I60
sg21
I120
sg22
I89
sg23
I128
sg24
I56
sg8
g632
sg25
I11
sg12
I10
sg26
F220.74638019304302
sg27
I2
sg28
I77
sssg80
I35
sg81
I1920
sg82
S'trial11.png'
p682
sg84
VTrial 10->trial11.png
p683
sg86
S'results\\P035\\trial_png\\trial11.png'
p684
sg88
g89
sg234
I1
sg235
I16
sg236
(lp685
I3
aI0
aI0
aI0
aI0
aI0
aI0
aI2
aI0
aI0
aI0
aI0
aI0
aI0
aI0
aI1
aI0
aI1
aI0
aI3
aI1
aI0
aI0
aI0
aI0
aI1
aI0
aI0
aI0
aI0
aI0
aI0
aI0
aI0
aI0
aI0
aI0
aI0
aI0
aI0
aI0
aI0
aI0
aI1
aI0
aI2
aI1
aI0
aI1
aI0
aI3
aI0
aI0
aI3
aI1
aI0
aI3
aI0
aI0
aI0
aI0
aI0
aI0
aI0
aI0
aI0
aI0
aI0
aI0
aI0
aI0
aI0
aI0
aI0
aI3
aI0
aI0
aI0
aI0
aI0
aI3
aI0
aI0
aI1
aI0
aI0
aI0
aI0
aI0
aI0
aI0
aI2
aI0
aI2
aI0
aI1
aI0
aI0
aI0
aI0
aI0
aI3
aI0
aI0
aI0
aI1
aI0
aI0
aI0
aI0
aI0
aI0
aI0
aI0
aI3
aI0
aI0
aI0
aI1
aI0
aI0
aI0
aI0
aI1
aI0
aI1
aI0
aI0
aI1
aI0
aI0
aI0
aI0
aI0
aI0
aI0
aI3
aI0
aI0
aI0
aI0
aI0
aI0
aI2
asg238
I9
sg239
I30
sg240
I1080
ssI12
(dp686
g2
I12
sg3
g4
sg5
I2
sg6
g7
sg8
VTrial 7
p687
sg10
g11
sg12
I10
sg13
g14
sg15
g16
sg17
(dp688
I1
(dp689
g20
I-60
sg21
I0
sg22
I-1
sg23
I4
sg24
I71
sg8
g687
sg25
I12
sg12
I0
sg26
F224.0293206539386
sg27
I0
sg28
I1
ssI2
(dp690
g20
I-60
sg21
I0
sg22
I-2
sg23
I5
sg24
I71
sg8
g687
sg25
I12
sg12
I0
sg26
F224.1125074230563
sg27
I0
sg28
I2
ssI3
(dp691
g20
I-60
sg21
I0
sg22
I-2
sg23
I3
sg24
I71
sg8
g687
sg25
I12
sg12
I0
sg26
F224.19586859633773
sg27
I0
sg28
I3
ssI4
(dp692
g20
I-60
sg21
I120
sg22
I-46
sg23
I69
sg24
I55
sg8
g687
sg25
I12
sg12
I0
sg26
F224.28756602084695
sg27
I0
sg28
I4
ssI5
(dp693
g20
I-60
sg21
I120
sg22
I-94
sg23
I157
sg24
I55
sg8
g687
sg25
I12
sg12
I0
sg26
F224.37919783457664
sg27
I0
sg28
I5
ssI9
(dp694
g20
I-60
sg21
I-120
sg22
I-68
sg23
I-148
sg24
I87
sg8
g687
sg25
I12
sg12
I0
sg26
F224.49585647842878
sg27
I1
sg28
I9
ssI10
(dp695
g20
I-60
sg21
I240
sg22
I-52
sg23
I270
sg24
I39
sg8
g687
sg25
I12
sg12
I1
sg26
F224.65423387029296
sg27
I2
sg28
I10
ssI11
(dp696
g20
I-60
sg21
I240
sg22
I-49
sg23
I273
sg24
I39
sg8
g687
sg25
I12
sg12
I1
sg26
F224.89584489611752
sg27
I3
sg28
I11
ssI12
(dp697
g20
I-60
sg21
I240
sg22
I-47
sg23
I263
sg24
I39
sg8
g687
sg25
I12
sg12
I1
sg26
F225.0624433855969
sg27
I3
sg28
I12
ssI13
(dp698
g20
I-300
sg21
I240
sg22
I-264
sg23
I225
sg24
I37
sg8
g687
sg25
I12
sg12
I1
sg26
F225.22915836768425
sg27
I1
sg28
I13
ssI14
(dp699
g20
I-180
sg21
I0
sg22
I-206
sg23
I-6
sg24
I70
sg8
g687
sg25
I12
sg12
I2
sg26
F225.4042109399952
sg27
I2
sg28
I14
ssI15
(dp700
g20
I-300
sg21
I120
sg22
I-261
sg23
I123
sg24
I53
sg8
g687
sg25
I12
sg12
I2
sg26
F225.64587552563944
sg27
I0
sg28
I15
ssI16
(dp701
g20
I-300
sg21
I240
sg22
I-304
sg23
I199
sg24
I37
sg8
g687
sg25
I12
sg12
I2
sg26
F225.74586668826942
sg27
I1
sg28
I16
ssI17
(dp702
g20
I-300
sg21
I240
sg22
I-311
sg23
I242
sg24
I37
sg8
g687
sg25
I12
sg12
I2
sg26
F225.91236040135072
sg27
I1
sg28
I17
ssI18
(dp703
g20
I-300
sg21
I240
sg22
I-331
sg23
I210
sg24
I37
sg8
g687
sg25
I12
sg12
I2
sg26
F226.08741163466584
sg27
I1
sg28
I18
ssI19
(dp704
g20
I-420
sg21
I120
sg22
I-436
sg23
I131
sg24
I52
sg8
g687
sg25
I12
sg12
I3
sg26
F226.25405062875916
sg27
I2
sg28
I19
ssI20
(dp705
g20
I-420
sg21
I120
sg22
I-435
sg23
I126
sg24
I52
sg8
g687
sg25
I12
sg12
I3
sg26
F226.5040795845366
sg27
I3
sg28
I20
ssI21
(dp706
g20
I-540
sg21
I-120
sg22
I-537
sg23
I-150
sg24
I83
sg8
g687
sg25
I12
sg12
I4
sg26
F226.670747032284
sg27
I2
sg28
I21
ssI22
(dp707
g20
I-540
sg21
I-120
sg22
I-541
sg23
I-152
sg24
I83
sg8
g687
sg25
I12
sg12
I4
sg26
F226.9206233425748
sg27
I3
sg28
I22
ssI23
(dp708
g20
I-420
sg21
I-360
sg22
I-436
sg23
I-343
sg24
I116
sg8
g687
sg25
I12
sg12
I4
sg26
F227.08733865941122
sg27
I1
sg28
I23
ssI24
(dp709
g20
I-420
sg21
I-360
sg22
I-412
sg23
I-380
sg24
I116
sg8
g687
sg25
I12
sg12
I4
sg26
F227.26220444184992
sg27
I1
sg28
I24
ssI25
(dp710
g20
I-420
sg21
I-360
sg22
I-415
sg23
I-379
sg24
I116
sg8
g687
sg25
I12
sg12
I4
sg26
F227.42883874945892
sg27
I1
sg28
I25
ssI26
(dp711
g20
I-180
sg21
I-360
sg22
I-188
sg23
I-363
sg24
I118
sg8
g687
sg25
I12
sg12
I5
sg26
F227.59548711652042
sg27
I2
sg28
I26
ssI27
(dp712
g20
I-180
sg21
I-360
sg22
I-186
sg23
I-365
sg24
I118
sg8
g687
sg25
I12
sg12
I5
sg26
F227.85386504398275
sg27
I3
sg28
I27
ssI28
(dp713
g20
I-660
sg21
I-360
sg22
I-663
sg23
I-348
sg24
I114
sg8
g687
sg25
I12
sg12
I5
sg26
F228.0205830388104
sg27
I1
sg28
I28
ssI29
(dp714
g20
I-660
sg21
I-360
sg22
I-666
sg23
I-349
sg24
I114
sg8
g687
sg25
I12
sg12
I5
sg26
F228.19543810928508
sg27
I1
sg28
I29
ssI30
(dp715
g20
I-660
sg21
I-360
sg22
I-669
sg23
I-352
sg24
I114
sg8
g687
sg25
I12
sg12
I5
sg26
F228.3621417099107
sg27
I1
sg28
I30
ssI31
(dp716
g20
I-660
sg21
I-360
sg22
I-669
sg23
I-358
sg24
I114
sg8
g687
sg25
I12
sg12
I5
sg26
F228.5288145136401
sg27
I1
sg28
I31
ssI32
(dp717
g20
I-900
sg21
I-240
sg22
I-886
sg23
I-239
sg24
I96
sg8
g687
sg25
I12
sg12
I5
sg26
F228.72046795214737
sg27
I0
sg28
I32
ssI33
(dp718
g20
I-900
sg21
I-240
sg22
I-885
sg23
I-237
sg24
I96
sg8
g687
sg25
I12
sg12
I5
sg26
F228.82043501285807
sg27
I0
sg28
I33
ssI34
(dp719
g20
I-900
sg21
I-240
sg22
I-886
sg23
I-239
sg24
I96
sg8
g687
sg25
I12
sg12
I5
sg26
F228.91198246987096
sg27
I0
sg28
I34
ssI35
(dp720
g20
I-900
sg21
I-240
sg22
I-886
sg23
I-236
sg24
I96
sg8
g687
sg25
I12
sg12
I5
sg26
F229.01201681510565
sg27
I0
sg28
I35
ssI36
(dp721
g20
I-900
sg21
I-240
sg22
I-885
sg23
I-236
sg24
I96
sg8
g687
sg25
I12
sg12
I5
sg26
F229.10360243349078
sg27
I0
sg28
I36
ssI37
(dp722
g20
I-900
sg21
I-240
sg22
I-884
sg23
I-236
sg24
I96
sg8
g687
sg25
I12
sg12
I5
sg26
F229.19525734489252
sg27
I0
sg28
I37
ssI38
(dp723
g20
I-780
sg21
I-120
sg22
I-804
sg23
I-106
sg24
I81
sg8
g687
sg25
I12
sg12
I6
sg26
F229.28695945588606
sg27
I2
sg28
I38
ssI39
(dp724
g20
I-780
sg21
I-120
sg22
I-808
sg23
I-99
sg24
I81
sg8
g687
sg25
I12
sg12
I6
sg26
F229.52859424888084
sg27
I3
sg28
I39
ssI40
(dp725
g20
I-780
sg21
I120
sg22
I-822
sg23
I147
sg24
I49
sg8
g687
sg25
I12
sg12
I6
sg26
F229.69538856645158
sg27
I0
sg28
I40
ssI41
(dp726
g20
I-780
sg21
I120
sg22
I-822
sg23
I146
sg24
I49
sg8
g687
sg25
I12
sg12
I6
sg26
F229.78684698026427
sg27
I0
sg28
I41
ssI42
(dp727
g20
I-780
sg21
I120
sg22
I-821
sg23
I142
sg24
I49
sg8
g687
sg25
I12
sg12
I6
sg26
F229.87024497592165
sg27
I0
sg28
I42
ssI43
(dp728
g20
I-780
sg21
I120
sg22
I-822
sg23
I141
sg24
I49
sg8
g687
sg25
I12
sg12
I6
sg26
F229.9618804718889
sg27
I0
sg28
I43
ssI44
(dp729
g20
I-780
sg21
I120
sg22
I-823
sg23
I141
sg24
I49
sg8
g687
sg25
I12
sg12
I6
sg26
F230.05353370954663
sg27
I0
sg28
I44
ssI45
(dp730
g20
I-780
sg21
I120
sg22
I-825
sg23
I142
sg24
I49
sg8
g687
sg25
I12
sg12
I6
sg26
F230.1368560519586
sg27
I0
sg28
I45
ssI46
(dp731
g20
I-780
sg21
I120
sg22
I-835
sg23
I143
sg24
I49
sg8
g687
sg25
I12
sg12
I6
sg26
F230.22022425496652
sg27
I0
sg28
I46
ssI47
(dp732
g20
I-900
sg21
I120
sg22
I-899
sg23
I150
sg24
I48
sg8
g687
sg25
I12
sg12
I6
sg26
F230.3035415761451
sg27
I1
sg28
I47
ssI48
(dp733
g20
I-900
sg21
I120
sg22
I-901
sg23
I145
sg24
I48
sg8
g687
sg25
I12
sg12
I6
sg26
F230.46181887809598
sg27
I1
sg28
I48
ssI49
(dp734
g20
I-900
sg21
I120
sg22
I-900
sg23
I141
sg24
I48
sg8
g687
sg25
I12
sg12
I6
sg26
F230.62018924023414
sg27
I1
sg28
I49
ssI50
(dp735
g20
I-660
sg21
I120
sg22
I-713
sg23
I140
sg24
I50
sg8
g687
sg25
I12
sg12
I6
sg26
F230.7784508089876
sg27
I1
sg28
I50
ssI51
(dp736
g20
I-660
sg21
I120
sg22
I-712
sg23
I142
sg24
I50
sg8
g687
sg25
I12
sg12
I6
sg26
F230.94510520152926
sg27
I1
sg28
I51
ssI52
(dp737
g20
I-660
sg21
I480
sg22
I-715
sg23
I527
sg24
I2
sg8
g687
sg25
I12
sg12
I7
sg26
F231.10345983047
sg27
I2
sg28
I52
ssI53
(dp738
g20
I-660
sg21
I480
sg22
I-711
sg23
I520
sg24
I2
sg8
g687
sg25
I12
sg12
I7
sg26
F231.34508960223138
sg27
I3
sg28
I53
ssI54
(dp739
g20
I-900
sg21
I480
sg22
I-883
sg23
I517
sg24
I0
sg8
g687
sg25
I12
sg12
I7
sg26
F231.5034505914009
sg27
I1
sg28
I54
ssI55
(dp740
g20
I-900
sg21
I480
sg22
I-883
sg23
I517
sg24
I0
sg8
g687
sg25
I12
sg12
I7
sg26
F231.66171584239237
sg27
I1
sg28
I55
ssI56
(dp741
g20
I-900
sg21
I480
sg22
I-883
sg23
I516
sg24
I0
sg8
g687
sg25
I12
sg12
I7
sg26
F231.81999749607849
sg27
I1
sg28
I56
ssI57
(dp742
g20
I-900
sg21
I480
sg22
I-882
sg23
I520
sg24
I0
sg8
g687
sg25
I12
sg12
I7
sg26
F231.97841338406351
sg27
I1
sg28
I57
ssI58
(dp743
g20
I-180
sg21
I480
sg22
I-235
sg23
I512
sg24
I6
sg8
g687
sg25
I12
sg12
I8
sg26
F232.13665855012232
sg27
I2
sg28
I58
ssI59
(dp744
g20
I-300
sg21
I480
sg22
I-244
sg23
I510
sg24
I5
sg8
g687
sg25
I12
sg12
I8
sg26
F232.38662490786055
sg27
I0
sg28
I59
ssI60
(dp745
g20
I-180
sg21
I480
sg22
I-185
sg23
I503
sg24
I6
sg8
g687
sg25
I12
sg12
I8
sg26
F232.47820249227243
sg27
I3
sg28
I60
ssI61
(dp746
g20
I180
sg21
I360
sg22
I190
sg23
I374
sg24
I25
sg8
g687
sg25
I12
sg12
I9
sg26
F232.63659829532526
sg27
I2
sg28
I61
ssI62
(dp747
g20
I180
sg21
I360
sg22
I175
sg23
I367
sg24
I25
sg8
g687
sg25
I12
sg12
I9
sg26
F232.89496015484156
sg27
I3
sg28
I62
ssI63
(dp748
g20
I420
sg21
I360
sg22
I395
sg23
I342
sg24
I27
sg8
g687
sg25
I12
sg12
I9
sg26
F233.06151613121392
sg27
I1
sg28
I63
ssI64
(dp749
g20
I420
sg21
I360
sg22
I391
sg23
I343
sg24
I27
sg8
g687
sg25
I12
sg12
I9
sg26
F233.22828065613476
sg27
I1
sg28
I64
ssI65
(dp750
g20
I420
sg21
I360
sg22
I388
sg23
I345
sg24
I27
sg8
g687
sg25
I12
sg12
I9
sg26
F233.394951116622
sg27
I1
sg28
I65
ssI66
(dp751
g20
I660
sg21
I480
sg22
I646
sg23
I531
sg24
I13
sg8
g687
sg25
I12
sg12
I9
sg26
F233.56154726285922
sg27
I1
sg28
I66
ssI67
(dp752
g20
I660
sg21
I480
sg22
I648
sg23
I533
sg24
I13
sg8
g687
sg25
I12
sg12
I9
sg26
F233.7365255209197
sg27
I1
sg28
I67
ssI68
(dp753
g20
I660
sg21
I480
sg22
I650
sg23
I526
sg24
I13
sg8
g687
sg25
I12
sg12
I9
sg26
F233.90317924396322
sg27
I1
sg28
I68
ssI69
(dp754
g20
I540
sg21
I-120
sg22
I532
sg23
I-165
sg24
I92
sg8
g687
sg25
I12
sg12
I9
sg26
F234.07815448928386
sg27
I0
sg28
I69
ssI70
(dp755
g20
I420
sg21
I0
sg22
I429
sg23
I-23
sg24
I75
sg8
g687
sg25
I12
sg12
I10
sg26
F234.16979400223772
sg27
I2
sg28
I70
sssg80
I35
sg81
I1920
sg82
S'trial12.png'
p756
sg84
VTrial 7->trial12.png
p757
sg86
S'results\\P035\\trial_png\\trial12.png'
p758
sg88
g89
sg234
I2
sg235
I16
sg236
(lp759
I1
aI0
aI3
aI0
aI0
aI0
aI3
aI0
aI0
aI0
aI0
aI0
aI0
aI1
aI0
aI0
aI0
aI0
aI0
aI0
aI0
aI0
aI0
aI0
aI0
aI3
aI0
aI1
aI0
aI0
aI0
aI0
aI0
aI0
aI0
aI0
aI0
aI1
aI0
aI3
aI0
aI0
aI0
aI0
aI0
aI0
aI0
aI2
aI1
aI0
aI1
aI0
aI3
aI0
aI0
aI0
aI1
aI0
aI0
aI0
aI0
aI0
aI0
aI0
aI0
aI0
aI0
aI0
aI0
aI0
aI3
aI0
aI0
aI0
aI0
aI3
aI0
aI2
aI0
aI0
aI0
aI3
aI0
aI3
aI0
aI0
aI0
aI1
aI0
aI0
aI0
aI0
aI0
aI0
aI0
aI1
aI0
aI0
aI0
aI0
aI0
aI0
aI0
aI0
aI0
aI2
aI0
aI1
aI0
aI0
aI2
aI0
aI1
aI0
aI1
aI0
aI1
aI0
aI3
aI0
aI0
aI0
aI0
aI0
aI0
aI0
aI0
aI0
aI0
aI0
aI0
aI0
aI0
aI0
aI0
aI0
aI0
aI1
aI0
aI0
aI2
aI0
aI1
aI0
asg238
I9
sg239
I30
sg240
I1080
ssI13
(dp760
g2
I13
sg3
g4
sg5
I2
sg6
g7
sg8
VTrial 9
p761
sg10
g11
sg12
I10
sg13
g14
sg15
g16
sg17
(dp762
I1
(dp763
g20
I-60
sg21
I0
sg22
I0
sg23
I5
sg24
I71
sg8
g761
sg25
I13
sg12
I1
sg26
F237.4443021389784
sg27
I2
sg28
I1
ssI2
(dp764
g20
I-60
sg21
I0
sg22
I0
sg23
I13
sg24
I71
sg8
g761
sg25
I13
sg12
I1
sg26
F237.6943873325672
sg27
I3
sg28
I2
ssI3
(dp765
g20
I-60
sg21
I0
sg22
I-58
sg23
I2
sg24
I71
sg8
g761
sg25
I13
sg12
I1
sg26
F237.86930366208617
sg27
I3
sg28
I3
ssI4
(dp766
g20
I-60
sg21
I0
sg22
I-61
sg23
I0
sg24
I71
sg8
g761
sg25
I13
sg12
I1
sg26
F238.03606852175608
sg27
I3
sg28
I4
ssI5
(dp767
g20
I-300
sg21
I120
sg22
I-270
sg23
I168
sg24
I53
sg8
g761
sg25
I13
sg12
I1
sg26
F238.21105481378936
sg27
I1
sg28
I5
ssI6
(dp768
g20
I-300
sg21
I120
sg22
I-269
sg23
I170
sg24
I53
sg8
g761
sg25
I13
sg12
I1
sg26
F238.36933881071764
sg27
I1
sg28
I6
ssI7
(dp769
g20
I-300
sg21
I120
sg22
I-271
sg23
I170
sg24
I53
sg8
g761
sg25
I13
sg12
I1
sg26
F238.52759770148032
sg27
I1
sg28
I7
ssI8
(dp770
g20
I-420
sg21
I360
sg22
I-419
sg23
I416
sg24
I20
sg8
g761
sg25
I13
sg12
I1
sg26
F238.68589709685693
sg27
I1
sg28
I8
ssI9
(dp771
g20
I-420
sg21
I360
sg22
I-421
sg23
I414
sg24
I20
sg8
g761
sg25
I13
sg12
I1
sg26
F238.8442430223272
sg27
I1
sg28
I9
ssI10
(dp772
g20
I-420
sg21
I360
sg22
I-420
sg23
I414
sg24
I20
sg8
g761
sg25
I13
sg12
I1
sg26
F239.00265690181914
sg27
I1
sg28
I10
ssI11
(dp773
g20
I-420
sg21
I480
sg22
I-452
sg23
I420
sg24
I4
sg8
g761
sg25
I13
sg12
I1
sg26
F239.16077285481242
sg27
I0
sg28
I11
ssI12
(dp774
g20
I-420
sg21
I480
sg22
I-449
sg23
I422
sg24
I4
sg8
g761
sg25
I13
sg12
I1
sg26
F239.24412465512523
sg27
I0
sg28
I12
ssI13
(dp775
g20
I-660
sg21
I120
sg22
I-652
sg23
I143
sg24
I50
sg8
g761
sg25
I13
sg12
I1
sg26
F239.32741017516082
sg27
I1
sg28
I13
ssI14
(dp776
g20
I-660
sg21
I120
sg22
I-657
sg23
I142
sg24
I50
sg8
g761
sg25
I13
sg12
I1
sg26
F239.48591242835573
sg27
I1
sg28
I14
ssI15
(dp777
g20
I-660
sg21
I120
sg22
I-659
sg23
I139
sg24
I50
sg8
g761
sg25
I13
sg12
I1
sg26
F239.64416161140116
sg27
I1
sg28
I15
ssI16
(dp778
g20
I-660
sg21
I480
sg22
I-658
sg23
I438
sg24
I2
sg8
g761
sg25
I13
sg12
I1
sg26
F239.80248711718968
sg27
I0
sg28
I16
ssI17
(dp779
g20
I-660
sg21
I480
sg22
I-660
sg23
I443
sg24
I2
sg8
g761
sg25
I13
sg12
I1
sg26
F239.89401214602822
sg27
I0
sg28
I17
ssI18
(dp780
g20
I-660
sg21
I480
sg22
I-661
sg23
I442
sg24
I2
sg8
g761
sg25
I13
sg12
I1
sg26
F239.98566136669933
sg27
I0
sg28
I18
ssI19
(dp781
g20
I-660
sg21
I480
sg22
I-661
sg23
I441
sg24
I2
sg8
g761
sg25
I13
sg12
I1
sg26
F240.06903793842912
sg27
I0
sg28
I19
ssI20
(dp782
g20
I-660
sg21
I480
sg22
I-662
sg23
I443
sg24
I2
sg8
g761
sg25
I13
sg12
I1
sg26
F240.15231910672946
sg27
I0
sg28
I20
ssI21
(dp783
g20
I-660
sg21
I480
sg22
I-661
sg23
I442
sg24
I2
sg8
g761
sg25
I13
sg12
I1
sg26
F240.23577769193344
sg27
I0
sg28
I21
ssI22
(dp784
g20
I-660
sg21
I480
sg22
I-662
sg23
I441
sg24
I2
sg8
g761
sg25
I13
sg12
I1
sg26
F240.327449675528
sg27
I0
sg28
I22
ssI23
(dp785
g20
I-900
sg21
I120
sg22
I-865
sg23
I141
sg24
I48
sg8
g761
sg25
I13
sg12
I1
sg26
F240.4190476796216
sg27
I1
sg28
I23
ssI24
(dp786
g20
I-900
sg21
I120
sg22
I-864
sg23
I136
sg24
I48
sg8
g761
sg25
I13
sg12
I1
sg26
F240.5774478344092
sg27
I1
sg28
I24
ssI25
(dp787
g20
I-900
sg21
I480
sg22
I-880
sg23
I525
sg24
I0
sg8
g761
sg25
I13
sg12
I1
sg26
F240.74406841731434
sg27
I1
sg28
I25
ssI26
(dp788
g20
I-900
sg21
I480
sg22
I-879
sg23
I518
sg24
I0
sg8
g761
sg25
I13
sg12
I1
sg26
F240.9107442337836
sg27
I1
sg28
I26
ssI27
(dp789
g20
I-900
sg21
I480
sg22
I-881
sg23
I518
sg24
I0
sg8
g761
sg25
I13
sg12
I1
sg26
F241.06898103112053
sg27
I1
sg28
I27
ssI28
(dp790
g20
I-660
sg21
I-360
sg22
I-705
sg23
I-333
sg24
I114
sg8
g761
sg25
I13
sg12
I1
sg26
F241.23552897351965
sg27
I0
sg28
I28
ssI29
(dp791
g20
I-660
sg21
I-360
sg22
I-705
sg23
I-330
sg24
I114
sg8
g761
sg25
I13
sg12
I1
sg26
F241.31890587999806
sg27
I0
sg28
I29
ssI30
(dp792
g20
I-660
sg21
I-240
sg22
I-654
sg23
I-259
sg24
I98
sg8
g761
sg25
I13
sg12
I2
sg26
F241.402185709303
sg27
I2
sg28
I30
ssI31
(dp793
g20
I-660
sg21
I-240
sg22
I-658
sg23
I-258
sg24
I98
sg8
g761
sg25
I13
sg12
I2
sg26
F241.64394837636792
sg27
I3
sg28
I31
ssI32
(dp794
g20
I-660
sg21
I-240
sg22
I-658
sg23
I-253
sg24
I98
sg8
g761
sg25
I13
sg12
I2
sg26
F241.80217446174083
sg27
I3
sg28
I32
ssI33
(dp795
g20
I-900
sg21
I-240
sg22
I-878
sg23
I-215
sg24
I96
sg8
g761
sg25
I13
sg12
I2
sg26
F241.9689741352936
sg27
I1
sg28
I33
ssI34
(dp796
g20
I-900
sg21
I-240
sg22
I-883
sg23
I-220
sg24
I96
sg8
g761
sg25
I13
sg12
I2
sg26
F242.13555488308248
sg27
I1
sg28
I34
ssI35
(dp797
g20
I-900
sg21
I-240
sg22
I-885
sg23
I-222
sg24
I96
sg8
g761
sg25
I13
sg12
I2
sg26
F242.29377862521324
sg27
I1
sg28
I35
ssI36
(dp798
g20
I-780
sg21
I-480
sg22
I-724
sg23
I-446
sg24
I129
sg8
g761
sg25
I13
sg12
I3
sg26
F242.45210580474668
sg27
I2
sg28
I36
ssI37
(dp799
g20
I-780
sg21
I-480
sg22
I-734
sg23
I-441
sg24
I129
sg8
g761
sg25
I13
sg12
I3
sg26
F242.69374026299238
sg27
I3
sg28
I37
ssI38
(dp800
g20
I-420
sg21
I-480
sg22
I-470
sg23
I-475
sg24
I132
sg8
g761
sg25
I13
sg12
I3
sg26
F242.85205740005904
sg27
I0
sg28
I38
ssI39
(dp801
g20
I-540
sg21
I-480
sg22
I-481
sg23
I-473
sg24
I131
sg8
g761
sg25
I13
sg12
I3
sg26
F242.95213325415443
sg27
I1
sg28
I39
ssI40
(dp802
g20
I-540
sg21
I-480
sg22
I-480
sg23
I-472
sg24
I131
sg8
g761
sg25
I13
sg12
I3
sg26
F243.11899820373765
sg27
I1
sg28
I40
ssI41
(dp803
g20
I-420
sg21
I-480
sg22
I-459
sg23
I-447
sg24
I132
sg8
g761
sg25
I13
sg12
I3
sg26
F243.29367150557346
sg27
I0
sg28
I41
ssI42
(dp804
g20
I-300
sg21
I-120
sg22
I-313
sg23
I-172
sg24
I85
sg8
g761
sg25
I13
sg12
I3
sg26
F243.3852765393931
sg27
I1
sg28
I42
ssI43
(dp805
g20
I-300
sg21
I-120
sg22
I-306
sg23
I-168
sg24
I85
sg8
g761
sg25
I13
sg12
I3
sg26
F243.551972440795
sg27
I1
sg28
I43
ssI44
(dp806
g20
I-300
sg21
I-120
sg22
I-308
sg23
I-170
sg24
I85
sg8
g761
sg25
I13
sg12
I3
sg26
F243.71874767767986
sg27
I1
sg28
I44
ssI45
(dp807
g20
I-300
sg21
I-360
sg22
I-303
sg23
I-407
sg24
I117
sg8
g761
sg25
I13
sg12
I4
sg26
F243.88528591236172
sg27
I2
sg28
I45
ssI46
(dp808
g20
I-300
sg21
I-360
sg22
I-309
sg23
I-403
sg24
I117
sg8
g761
sg25
I13
sg12
I4
sg26
F244.15191339109333
sg27
I3
sg28
I46
ssI47
(dp809
g20
I-60
sg21
I-240
sg22
I-85
sg23
I-215
sg24
I103
sg8
g761
sg25
I13
sg12
I5
sg26
F244.33534405824093
sg27
I2
sg28
I47
ssI48
(dp810
g20
I-60
sg21
I-240
sg22
I-75
sg23
I-215
sg24
I103
sg8
g761
sg25
I13
sg12
I5
sg26
F244.60194509181156
sg27
I3
sg28
I48
ssI49
(dp811
g20
I60
sg21
I-480
sg22
I53
sg23
I-421
sg24
I136
sg8
g761
sg25
I13
sg12
I5
sg26
F244.76852249211197
sg27
I1
sg28
I49
ssI50
(dp812
g20
I60
sg21
I-480
sg22
I55
sg23
I-457
sg24
I136
sg8
g761
sg25
I13
sg12
I5
sg26
F244.93513704953693
sg27
I1
sg28
I50
ssI51
(dp813
g20
I300
sg21
I-240
sg22
I284
sg23
I-221
sg24
I106
sg8
g761
sg25
I13
sg12
I6
sg26
F245.11011463809973
sg27
I2
sg28
I51
ssI52
(dp814
g20
I300
sg21
I-240
sg22
I316
sg23
I-214
sg24
I106
sg8
g761
sg25
I13
sg12
I6
sg26
F245.36850227327977
sg27
I3
sg28
I52
ssI53
(dp815
g20
I300
sg21
I-240
sg22
I320
sg23
I-219
sg24
I106
sg8
g761
sg25
I13
sg12
I6
sg26
F245.53507599134218
sg27
I3
sg28
I53
ssI54
(dp816
g20
I180
sg21
I120
sg22
I200
sg23
I124
sg24
I57
sg8
g761
sg25
I13
sg12
I7
sg26
F245.71018078447742
sg27
I2
sg28
I54
ssI55
(dp817
g20
I180
sg21
I120
sg22
I197
sg23
I123
sg24
I57
sg8
g761
sg25
I13
sg12
I7
sg26
F245.9517593396613
sg27
I3
sg28
I55
ssI56
(dp818
g20
I300
sg21
I240
sg22
I299
sg23
I262
sg24
I42
sg8
g761
sg25
I13
sg12
I7
sg26
F246.1102133890181
sg27
I1
sg28
I56
ssI57
(dp819
g20
I300
sg21
I240
sg22
I298
sg23
I258
sg24
I42
sg8
g761
sg25
I13
sg12
I7
sg26
F246.26838825781306
sg27
I1
sg28
I57
ssI58
(dp820
g20
I300
sg21
I240
sg22
I301
sg23
I263
sg24
I42
sg8
g761
sg25
I13
sg12
I7
sg26
F246.43492716199262
sg27
I1
sg28
I58
ssI59
(dp821
g20
I420
sg21
I480
sg22
I405
sg23
I452
sg24
I11
sg8
g761
sg25
I13
sg12
I8
sg26
F246.5934193727212
sg27
I2
sg28
I59
ssI60
(dp822
g20
I420
sg21
I480
sg22
I411
sg23
I465
sg24
I11
sg8
g761
sg25
I13
sg12
I8
sg26
F246.84330036949586
sg27
I3
sg28
I60
ssI61
(dp823
g20
I420
sg21
I480
sg22
I410
sg23
I473
sg24
I11
sg8
g761
sg25
I13
sg12
I8
sg26
F247.0098787740426
sg27
I3
sg28
I61
ssI62
(dp824
g20
I660
sg21
I360
sg22
I681
sg23
I343
sg24
I29
sg8
g761
sg25
I13
sg12
I9
sg26
F247.16830436974487
sg27
I2
sg28
I62
ssI63
(dp825
g20
I660
sg21
I360
sg22
I679
sg23
I345
sg24
I29
sg8
g761
sg25
I13
sg12
I9
sg26
F247.4183276347917
sg27
I3
sg28
I63
ssI64
(dp826
g20
I660
sg21
I360
sg22
I678
sg23
I342
sg24
I29
sg8
g761
sg25
I13
sg12
I9
sg26
F247.58496227714932
sg27
I3
sg28
I64
ssI65
(dp827
g20
I780
sg21
I360
sg22
I776
sg23
I352
sg24
I30
sg8
g761
sg25
I13
sg12
I9
sg26
F247.7516334071347
sg27
I1
sg28
I65
ssI66
(dp828
g20
I780
sg21
I360
sg22
I775
sg23
I346
sg24
I30
sg8
g761
sg25
I13
sg12
I9
sg26
F247.9182780919582
sg27
I1
sg28
I66
ssI67
(dp829
g20
I780
sg21
I360
sg22
I773
sg23
I338
sg24
I30
sg8
g761
sg25
I13
sg12
I9
sg26
F248.08491005632504
sg27
I1
sg28
I67
ssI68
(dp830
g20
I540
sg21
I0
sg22
I576
sg23
I-39
sg24
I76
sg8
g761
sg25
I13
sg12
I10
sg26
F248.25971893145515
sg27
I2
sg28
I68
sssg80
I35
sg81
I1920
sg82
S'trial13.png'
p831
sg84
VTrial 9->trial13.png
p832
sg86
S'results\\P035\\trial_png\\trial13.png'
p833
sg88
g89
sg234
I3
sg235
I16
sg236
(lp834
I1
aI0
aI0
aI0
aI0
aI0
aI2
aI0
aI2
aI0
aI0
aI3
aI0
aI0
aI0
aI0
aI0
aI0
aI2
aI0
aI1
aI0
aI0
aI0
aI0
aI0
aI0
aI0
aI0
aI3
aI1
aI0
aI0
aI0
aI0
aI0
aI0
aI0
aI0
aI1
aI0
aI0
aI1
aI0
aI0
aI0
aI0
aI0
aI1
aI0
aI1
aI0
aI0
aI1
aI0
aI0
aI0
aI3
aI0
aI0
aI0
aI0
aI0
aI2
aI0
aI0
aI0
aI0
aI0
aI0
aI0
aI3
aI0
aI0
aI0
aI0
aI3
aI0
aI0
aI0
aI0
aI0
aI0
aI0
aI0
aI1
aI0
aI0
aI0
aI0
aI0
aI0
aI0
aI0
aI1
aI0
aI1
aI0
aI3
aI0
aI0
aI0
aI0
aI3
aI0
aI0
aI3
aI0
aI1
aI0
aI0
aI0
aI0
aI0
aI0
aI0
aI0
aI3
aI0
aI0
aI0
aI0
aI0
aI0
aI0
aI0
aI0
aI0
aI0
aI3
aI0
aI1
aI0
aI0
aI0
aI0
aI1
aI0
aI0
aI0
aI0
aI2
aI0
aI1
asg238
I9
sg239
I30
sg240
I1080
ssI14
(dp835
g2
I14
sg3
g4
sg5
I2
sg6
g7
sg8
VTrial 3
p836
sg10
g11
sg12
I10
sg13
g14
sg15
g16
sg17
(dp837
I1
(dp838
g20
I-60
sg21
I0
sg22
I0
sg23
I0
sg24
I71
sg8
g836
sg25
I14
sg12
I0
sg26
F251.58432190255235
sg27
I0
sg28
I1
ssI2
(dp839
g20
I-60
sg21
I0
sg22
I0
sg23
I-1
sg24
I71
sg8
g836
sg25
I14
sg12
I0
sg26
F251.67608527258972
sg27
I0
sg28
I2
ssI3
(dp840
g20
I-60
sg21
I0
sg22
I-2
sg23
I5
sg24
I71
sg8
g836
sg25
I14
sg12
I0
sg26
F251.759408619248
sg27
I0
sg28
I3
ssI4
(dp841
g20
I-180
sg21
I0
sg22
I-160
sg23
I31
sg24
I70
sg8
g836
sg25
I14
sg12
I1
sg26
F251.84271455896533
sg27
I2
sg28
I4
ssI5
(dp842
g20
I-180
sg21
I0
sg22
I-160
sg23
I27
sg24
I70
sg8
g836
sg25
I14
sg12
I1
sg26
F252.10108110496594
sg27
I3
sg28
I5
ssI6
(dp843
g20
I180
sg21
I0
sg22
I178
sg23
I11
sg24
I73
sg8
g836
sg25
I14
sg12
I1
sg26
F252.25937983084486
sg27
I1
sg28
I6
ssI7
(dp844
g20
I180
sg21
I0
sg22
I218
sg23
I-7
sg24
I73
sg8
g836
sg25
I14
sg12
I1
sg26
F252.42601681644464
sg27
I1
sg28
I7
ssI8
(dp845
g20
I180
sg21
I0
sg22
I217
sg23
I-5
sg24
I73
sg8
g836
sg25
I14
sg12
I1
sg26
F252.5926303696233
sg27
I1
sg28
I8
ssI9
(dp846
g20
I420
sg21
I-120
sg22
I426
sg23
I-115
sg24
I91
sg8
g836
sg25
I14
sg12
I1
sg26
F252.75933798723554
sg27
I1
sg28
I9
ssI10
(dp847
g20
I420
sg21
I-120
sg22
I428
sg23
I-118
sg24
I91
sg8
g836
sg25
I14
sg12
I1
sg26
F252.9342543167545
sg27
I1
sg28
I10
ssI11
(dp848
g20
I420
sg21
I-120
sg22
I429
sg23
I-121
sg24
I91
sg8
g836
sg25
I14
sg12
I1
sg26
F253.10093548920577
sg27
I1
sg28
I11
ssI12
(dp849
g20
I420
sg21
I-120
sg22
I429
sg23
I-123
sg24
I91
sg8
g836
sg25
I14
sg12
I1
sg26
F253.25913780740848
sg27
I1
sg28
I12
ssI13
(dp850
g20
I180
sg21
I-240
sg22
I207
sg23
I-249
sg24
I105
sg8
g836
sg25
I14
sg12
I2
sg26
F253.4258645057066
sg27
I2
sg28
I13
ssI14
(dp851
g20
I180
sg21
I-240
sg22
I205
sg23
I-247
sg24
I105
sg8
g836
sg25
I14
sg12
I2
sg26
F253.66756055774522
sg27
I3
sg28
I14
ssI15
(dp852
g20
I180
sg21
I-240
sg22
I205
sg23
I-248
sg24
I105
sg8
g836
sg25
I14
sg12
I2
sg26
F253.8342273359949
sg27
I3
sg28
I15
ssI16
(dp853
g20
I180
sg21
I-240
sg22
I206
sg23
I-249
sg24
I105
sg8
g836
sg25
I14
sg12
I2
sg26
F254.00082850346507
sg27
I3
sg28
I16
ssI17
(dp854
g20
I300
sg21
I-360
sg22
I328
sg23
I-364
sg24
I122
sg8
g836
sg25
I14
sg12
I3
sg26
F254.17576424841855
sg27
I2
sg28
I17
ssI18
(dp855
g20
I300
sg21
I-360
sg22
I329
sg23
I-366
sg24
I122
sg8
g836
sg25
I14
sg12
I3
sg26
F254.4257051652421
sg27
I3
sg28
I18
ssI19
(dp856
g20
I-60
sg21
I-240
sg22
I-62
sg23
I-259
sg24
I103
sg8
g836
sg25
I14
sg12
I3
sg26
F254.59240709212372
sg27
I1
sg28
I19
ssI20
(dp857
g20
I-60
sg21
I-240
sg22
I-63
sg23
I-263
sg24
I103
sg8
g836
sg25
I14
sg12
I3
sg26
F254.75899486963908
sg27
I1
sg28
I20
ssI21
(dp858
g20
I-60
sg21
I-120
sg22
I-64
sg23
I-74
sg24
I87
sg8
g836
sg25
I14
sg12
I3
sg26
F254.9256057448265
sg27
I0
sg28
I21
ssI22
(dp859
g20
I-60
sg21
I240
sg22
I-8
sg23
I233
sg24
I39
sg8
g836
sg25
I14
sg12
I3
sg26
F255.01733430098102
sg27
I1
sg28
I22
ssI23
(dp860
g20
I-60
sg21
I240
sg22
I-44
sg23
I269
sg24
I39
sg8
g836
sg25
I14
sg12
I3
sg26
F255.1922449397689
sg27
I1
sg28
I23
ssI24
(dp861
g20
I-60
sg21
I240
sg22
I-46
sg23
I264
sg24
I39
sg8
g836
sg25
I14
sg12
I3
sg26
F255.3589297944577
sg27
I1
sg28
I24
ssI25
(dp862
g20
I-60
sg21
I240
sg22
I-88
sg23
I263
sg24
I39
sg8
g836
sg25
I14
sg12
I3
sg26
F255.525653480016
sg27
I1
sg28
I25
ssI26
(dp863
g20
I-300
sg21
I240
sg22
I-302
sg23
I293
sg24
I37
sg8
g836
sg25
I14
sg12
I4
sg26
F255.6923450296822
sg27
I2
sg28
I26
ssI27
(dp864
g20
I-300
sg21
I240
sg22
I-309
sg23
I242
sg24
I37
sg8
g836
sg25
I14
sg12
I4
sg26
F255.95907795430958
sg27
I3
sg28
I27
ssI28
(dp865
g20
I-420
sg21
I0
sg22
I-401
sg23
I29
sg24
I68
sg8
g836
sg25
I14
sg12
I5
sg26
F256.1339909363396
sg27
I2
sg28
I28
ssI29
(dp866
g20
I-420
sg21
I0
sg22
I-404
sg23
I33
sg24
I68
sg8
g836
sg25
I14
sg12
I5
sg26
F256.3756270683298
sg27
I3
sg28
I29
ssI30
(dp867
g20
I-300
sg21
I-360
sg22
I-317
sg23
I-314
sg24
I117
sg8
g836
sg25
I14
sg12
I5
sg26
F256.53394587914136
sg27
I1
sg28
I30
ssI31
(dp868
g20
I-300
sg21
I-360
sg22
I-318
sg23
I-315
sg24
I117
sg8
g836
sg25
I14
sg12
I5
sg26
F256.6921980749262
sg27
I1
sg28
I31
ssI32
(dp869
g20
I-540
sg21
I-240
sg22
I-523
sg23
I-259
sg24
I99
sg8
g836
sg25
I14
sg12
I6
sg26
F256.8590084604434
sg27
I2
sg28
I32
ssI33
(dp870
g20
I-540
sg21
I-240
sg22
I-521
sg23
I-255
sg24
I99
sg8
g836
sg25
I14
sg12
I6
sg26
F257.10881715146115
sg27
I3
sg28
I33
ssI34
(dp871
g20
I-540
sg21
I-360
sg22
I-524
sg23
I-400
sg24
I115
sg8
g836
sg25
I14
sg12
I6
sg26
F257.2672019078009
sg27
I0
sg28
I34
ssI35
(dp872
g20
I-540
sg21
I-360
sg22
I-510
sg23
I-411
sg24
I115
sg8
g836
sg25
I14
sg12
I6
sg26
F257.3504372155053
sg27
I0
sg28
I35
ssI36
(dp873
g20
I-540
sg21
I-360
sg22
I-514
sg23
I-411
sg24
I115
sg8
g836
sg25
I14
sg12
I6
sg26
F257.4336440695556
sg27
I0
sg28
I36
ssI37
(dp874
g20
I-540
sg21
I-360
sg22
I-514
sg23
I-410
sg24
I115
sg8
g836
sg25
I14
sg12
I6
sg26
F257.5170447432042
sg27
I0
sg28
I37
ssI38
(dp875
g20
I-540
sg21
I-360
sg22
I-514
sg23
I-412
sg24
I115
sg8
g836
sg25
I14
sg12
I6
sg26
F257.6003526914146
sg27
I0
sg28
I38
ssI39
(dp876
g20
I-540
sg21
I-360
sg22
I-512
sg23
I-411
sg24
I115
sg8
g836
sg25
I14
sg12
I6
sg26
F257.6836234825
sg27
I0
sg28
I39
ssI40
(dp877
g20
I-780
sg21
I-360
sg22
I-772
sg23
I-331
sg24
I113
sg8
g836
sg25
I14
sg12
I6
sg26
F257.77547522624036
sg27
I1
sg28
I40
ssI41
(dp878
g20
I-780
sg21
I-360
sg22
I-775
sg23
I-331
sg24
I113
sg8
g836
sg25
I14
sg12
I6
sg26
F257.93366415448827
sg27
I1
sg28
I41
ssI42
(dp879
g20
I-780
sg21
I-360
sg22
I-777
sg23
I-333
sg24
I113
sg8
g836
sg25
I14
sg12
I6
sg26
F258.0919083163003
sg27
I1
sg28
I42
ssI43
(dp880
g20
I-900
sg21
I-120
sg22
I-889
sg23
I-159
sg24
I80
sg8
g836
sg25
I14
sg12
I6
sg26
F258.2502525680261
sg27
I0
sg28
I43
ssI44
(dp881
g20
I-780
sg21
I0
sg22
I-822
sg23
I6
sg24
I65
sg8
g836
sg25
I14
sg12
I6
sg26
F258.333541100802
sg27
I1
sg28
I44
ssI45
(dp882
g20
I-780
sg21
I0
sg22
I-792
sg23
I49
sg24
I65
sg8
g836
sg25
I14
sg12
I6
sg26
F258.49203699376767
sg27
I1
sg28
I45
ssI46
(dp883
g20
I-780
sg21
I0
sg22
I-789
sg23
I47
sg24
I65
sg8
g836
sg25
I14
sg12
I6
sg26
F258.6502162142983
sg27
I1
sg28
I46
ssI47
(dp884
g20
I-780
sg21
I360
sg22
I-833
sg23
I318
sg24
I17
sg8
g836
sg25
I14
sg12
I6
sg26
F258.8086093393599
sg27
I0
sg28
I47
ssI48
(dp885
g20
I-900
sg21
I360
sg22
I-853
sg23
I324
sg24
I16
sg8
g836
sg25
I14
sg12
I6
sg26
F258.89186272350344
sg27
I0
sg28
I48
ssI49
(dp886
g20
I-900
sg21
I360
sg22
I-901
sg23
I335
sg24
I16
sg8
g836
sg25
I14
sg12
I6
sg26
F258.97516732422537
sg27
I0
sg28
I49
ssI50
(dp887
g20
I-900
sg21
I360
sg22
I-901
sg23
I337
sg24
I16
sg8
g836
sg25
I14
sg12
I6
sg26
F259.0668108541654
sg27
I0
sg28
I50
ssI51
(dp888
g20
I-660
sg21
I480
sg22
I-686
sg23
I458
sg24
I2
sg8
g836
sg25
I14
sg12
I6
sg26
F259.1501167938827
sg27
I0
sg28
I51
ssI52
(dp889
g20
I-660
sg21
I480
sg22
I-685
sg23
I454
sg24
I2
sg8
g836
sg25
I14
sg12
I6
sg26
F259.24183564231953
sg27
I0
sg28
I52
ssI53
(dp890
g20
I-660
sg21
I480
sg22
I-684
sg23
I452
sg24
I2
sg8
g836
sg25
I14
sg12
I6
sg26
F259.33350996915624
sg27
I0
sg28
I53
ssI54
(dp891
g20
I-660
sg21
I480
sg22
I-684
sg23
I451
sg24
I2
sg8
g836
sg25
I14
sg12
I6
sg26
F259.41677473476193
sg27
I0
sg28
I54
ssI55
(dp892
g20
I-660
sg21
I480
sg22
I-684
sg23
I450
sg24
I2
sg8
g836
sg25
I14
sg12
I6
sg26
F259.5001419335231
sg27
I0
sg28
I55
ssI56
(dp893
g20
I-660
sg21
I480
sg22
I-682
sg23
I449
sg24
I2
sg8
g836
sg25
I14
sg12
I6
sg26
F259.58344519524917
sg27
I0
sg28
I56
ssI57
(dp894
g20
I-660
sg21
I480
sg22
I-680
sg23
I449
sg24
I2
sg8
g836
sg25
I14
sg12
I6
sg26
F259.66674276624417
sg27
I0
sg28
I57
ssI58
(dp895
g20
I-660
sg21
I480
sg22
I-679
sg23
I450
sg24
I2
sg8
g836
sg25
I14
sg12
I6
sg26
F259.75004904071056
sg27
I0
sg28
I58
ssI59
(dp896
g20
I-900
sg21
I480
sg22
I-874
sg23
I532
sg24
I0
sg8
g836
sg25
I14
sg12
I6
sg26
F259.83360671158107
sg27
I1
sg28
I59
ssI60
(dp897
g20
I-900
sg21
I480
sg22
I-872
sg23
I532
sg24
I0
sg8
g836
sg25
I14
sg12
I6
sg26
F259.9918863567741
sg27
I1
sg28
I60
ssI138
(dp898
g20
I60
sg21
I480
sg22
I18
sg23
I513
sg24
I8
sg8
g836
sg25
I14
sg12
I6
sg26
F260.94995303473297
sg27
I1
sg28
I138
ssI139
(dp899
g20
I60
sg21
I480
sg22
I15
sg23
I515
sg24
I8
sg8
g836
sg25
I14
sg12
I6
sg26
F261.10834649454364
sg27
I1
sg28
I139
ssI140
(dp900
g20
I60
sg21
I480
sg22
I79
sg23
I504
sg24
I8
sg8
g836
sg25
I14
sg12
I6
sg26
F261.27493929329194
sg27
I1
sg28
I140
ssI141
(dp901
g20
I180
sg21
I480
sg22
I171
sg23
I439
sg24
I9
sg8
g836
sg25
I14
sg12
I6
sg26
F261.441571927156
sg27
I0
sg28
I141
ssI155
(dp902
g20
I780
sg21
I0
sg22
I790
sg23
I14
sg24
I78
sg8
g836
sg25
I14
sg12
I9
sg26
F263.59139313778223
sg27
I2
sg28
I155
ssI156
(dp903
g20
I780
sg21
I0
sg22
I784
sg23
I17
sg24
I78
sg8
g836
sg25
I14
sg12
I9
sg26
F263.8329439088093
sg27
I3
sg28
I156
ssI142
(dp904
g20
I300
sg21
I360
sg22
I276
sg23
I384
sg24
I26
sg8
g836
sg25
I14
sg12
I7
sg26
F261.5332941230822
sg27
I2
sg28
I142
ssI152
(dp905
g20
I780
sg21
I240
sg22
I840
sg23
I195
sg24
I46
sg8
g836
sg25
I14
sg12
I7
sg26
F263.16635747028977
sg27
I0
sg28
I152
ssI143
(dp906
g20
I300
sg21
I360
sg22
I278
sg23
I386
sg24
I26
sg8
g836
sg25
I14
sg12
I7
sg26
F261.7748612968039
sg27
I3
sg28
I143
ssI144
(dp907
g20
I300
sg21
I360
sg22
I352
sg23
I350
sg24
I26
sg8
g836
sg25
I14
sg12
I7
sg26
F261.9499496872445
sg27
I3
sg28
I144
ssI148
(dp908
g20
I780
sg21
I480
sg22
I780
sg23
I515
sg24
I14
sg8
g836
sg25
I14
sg12
I7
sg26
F262.5998589368246
sg27
I1
sg28
I148
ssI145
(dp909
g20
I540
sg21
I240
sg22
I529
sg23
I257
sg24
I44
sg8
g836
sg25
I14
sg12
I7
sg26
F262.116592698324
sg27
I1
sg28
I145
ssI151
(dp910
g20
I780
sg21
I240
sg22
I840
sg23
I194
sg24
I46
sg8
g836
sg25
I14
sg12
I7
sg26
F263.0748100132764
sg27
I0
sg28
I151
ssI146
(dp911
g20
I540
sg21
I240
sg22
I530
sg23
I259
sg24
I44
sg8
g836
sg25
I14
sg12
I7
sg26
F262.27481443196166
sg27
I1
sg28
I146
ssI154
(dp912
g20
I780
sg21
I240
sg22
I837
sg23
I191
sg24
I46
sg8
g836
sg25
I14
sg12
I8
sg26
F263.49973688738464
sg27
I0
sg28
I154
ssI157
(dp913
g20
I660
sg21
I-120
sg22
I672
sg23
I-139
sg24
I93
sg8
g836
sg25
I14
sg12
I10
sg26
F263.9996910267887
sg27
I2
sg28
I157
ssI147
(dp914
g20
I540
sg21
I240
sg22
I530
sg23
I257
sg24
I44
sg8
g836
sg25
I14
sg12
I7
sg26
F262.4415223843225
sg27
I1
sg28
I147
ssI150
(dp915
g20
I780
sg21
I480
sg22
I778
sg23
I510
sg24
I14
sg8
g836
sg25
I14
sg12
I7
sg26
F262.91653237657647
sg27
I1
sg28
I150
ssI153
(dp916
g20
I900
sg21
I240
sg22
I842
sg23
I195
sg24
I47
sg8
g836
sg25
I14
sg12
I8
sg26
F263.2498250937133
sg27
I2
sg28
I153
ssI137
(dp917
g20
I-420
sg21
I480
sg22
I-381
sg23
I537
sg24
I4
sg8
g836
sg25
I14
sg12
I6
sg26
F260.7833706132001
sg27
I1
sg28
I137
ssI149
(dp918
g20
I780
sg21
I480
sg22
I778
sg23
I513
sg24
I14
sg8
g836
sg25
I14
sg12
I7
sg26
F262.7581985020661
sg27
I1
sg28
I149
sssg80
I35
sg81
I1920
sg82
S'trial14.png'
p919
sg84
VTrial 3->trial14.png
p920
sg86
S'results\\P035\\trial_png\\trial14.png'
p921
sg88
g89
sg234
I4
sg235
I16
sg236
(lp922
I1
aI0
aI0
aI0
aI1
aI0
aI0
aI0
aI1
aI0
aI0
aI0
aI0
aI0
aI1
aI0
aI0
aI0
aI2
aI0
aI0
aI0
aI0
aI0
aI0
aI0
aI3
aI0
aI0
aI0
aI0
aI0
aI2
aI0
aI0
aI1
aI0
aI3
aI0
aI1
aI0
aI0
aI0
aI0
aI1
aI0
aI0
aI3
aI0
aI0
aI0
aI0
aI0
aI0
aI0
aI0
aI0
aI0
aI0
aI0
aI0
aI0
aI0
aI0
aI0
aI1
aI0
aI0
aI3
aI0
aI3
aI0
aI0
aI1
aI0
aI0
aI0
aI0
aI3
aI0
aI0
aI0
aI0
aI0
aI0
aI0
aI0
aI0
aI0
aI0
aI0
aI1
aI0
aI3
aI0
aI1
aI2
aI0
aI0
aI3
aI0
aI0
aI0
aI1
aI0
aI3
aI0
aI0
aI0
aI0
aI0
aI0
aI0
aI1
aI0
aI0
aI0
aI1
aI0
aI0
aI0
aI0
aI3
aI0
aI0
aI1
aI0
aI0
aI0
aI0
aI0
aI2
aI0
aI0
aI0
aI0
aI0
aI0
aI0
aI0
aI0
aI0
aI0
aI2
asg238
I9
sg239
I30
sg240
I1080
ssI15
(dp923
g2
I15
sg3
g4
sg5
I2
sg6
g7
sg8
VTrial 2
p924
sg10
g11
sg12
I10
sg13
g14
sg15
g16
sg17
(dp925
I1
(dp926
g20
I60
sg21
I0
sg22
I1
sg23
I3
sg24
I72
sg8
g924
sg25
I15
sg12
I0
sg26
F267.35748736155665
sg27
I1
sg28
I1
ssI2
(dp927
g20
I-60
sg21
I0
sg22
I-2
sg23
I8
sg24
I71
sg8
g924
sg25
I15
sg12
I0
sg26
F267.52432251848995
sg27
I0
sg28
I2
ssI3
(dp928
g20
I-60
sg21
I0
sg22
I-2
sg23
I5
sg24
I71
sg8
g924
sg25
I15
sg12
I0
sg26
F267.62427819773893
sg27
I0
sg28
I3
ssI4
(dp929
g20
I60
sg21
I0
sg22
I50
sg23
I8
sg24
I72
sg8
g924
sg25
I15
sg12
I0
sg26
F267.72419437662074
sg27
I1
sg28
I4
ssI5
(dp930
g20
I180
sg21
I0
sg22
I179
sg23
I-3
sg24
I73
sg8
g924
sg25
I15
sg12
I1
sg26
F267.89083404021176
sg27
I2
sg28
I5
ssI6
(dp931
g20
I180
sg21
I0
sg22
I221
sg23
I58
sg24
I73
sg8
g924
sg25
I15
sg12
I1
sg26
F268.140844584801
sg27
I3
sg28
I6
ssI7
(dp932
g20
I300
sg21
I240
sg22
I267
sg23
I208
sg24
I42
sg8
g924
sg25
I15
sg12
I1
sg26
F268.3075481854271
sg27
I1
sg28
I7
ssI8
(dp933
g20
I300
sg21
I240
sg22
I305
sg23
I246
sg24
I42
sg8
g924
sg25
I15
sg12
I1
sg26
F268.47421898066295
sg27
I1
sg28
I8
ssI9
(dp934
g20
I300
sg21
I240
sg22
I306
sg23
I241
sg24
I42
sg8
g924
sg25
I15
sg12
I1
sg26
F268.6408609874961
sg27
I1
sg28
I9
ssI10
(dp935
g20
I540
sg21
I240
sg22
I548
sg23
I231
sg24
I44
sg8
g924
sg25
I15
sg12
I2
sg26
F268.80753948195616
sg27
I2
sg28
I10
ssI11
(dp936
g20
I540
sg21
I240
sg22
I546
sg23
I230
sg24
I44
sg8
g924
sg25
I15
sg12
I2
sg26
F269.05736524516715
sg27
I3
sg28
I11
ssI12
(dp937
g20
I540
sg21
I240
sg22
I547
sg23
I234
sg24
I44
sg8
g924
sg25
I15
sg12
I2
sg26
F269.2239982137803
sg27
I3
sg28
I12
ssI13
(dp938
g20
I660
sg21
I0
sg22
I683
sg23
I8
sg24
I77
sg8
g924
sg25
I15
sg12
I2
sg26
F269.3906405553621
sg27
I1
sg28
I13
ssI14
(dp939
g20
I660
sg21
I-120
sg22
I608
sg23
I-74
sg24
I93
sg8
g924
sg25
I15
sg12
I2
sg26
F269.55736691891116
sg27
I0
sg28
I14
ssI15
(dp940
g20
I660
sg21
I0
sg22
I614
sg23
I-13
sg24
I77
sg8
g924
sg25
I15
sg12
I2
sg26
F269.6572760680665
sg27
I1
sg28
I15
ssI16
(dp941
g20
I420
sg21
I-120
sg22
I452
sg23
I-143
sg24
I91
sg8
g924
sg25
I15
sg12
I3
sg26
F269.82404293622994
sg27
I2
sg28
I16
ssI17
(dp942
g20
I420
sg21
I-120
sg22
I448
sg23
I-143
sg24
I91
sg8
g924
sg25
I15
sg12
I3
sg26
F270.07399992099954
sg27
I3
sg28
I17
ssI18
(dp943
g20
I660
sg21
I-360
sg22
I641
sg23
I-390
sg24
I125
sg8
g924
sg25
I15
sg12
I4
sg26
F270.24057363906195
sg27
I2
sg28
I18
ssI19
(dp944
g20
I660
sg21
I-360
sg22
I638
sg23
I-383
sg24
I125
sg8
g924
sg25
I15
sg12
I4
sg26
F270.4905878658892
sg27
I3
sg28
I19
ssI20
(dp945
g20
I660
sg21
I-360
sg22
I641
sg23
I-376
sg24
I125
sg8
g924
sg25
I15
sg12
I4
sg26
F270.6655239455913
sg27
I3
sg28
I20
ssI21
(dp946
g20
I540
sg21
I-480
sg22
I539
sg23
I-458
sg24
I140
sg8
g924
sg25
I15
sg12
I4
sg26
F270.84050822913196
sg27
I1
sg28
I21
ssI22
(dp947
g20
I540
sg21
I-480
sg22
I538
sg23
I-459
sg24
I140
sg8
g924
sg25
I15
sg12
I4
sg26
F271.0072546776137
sg27
I1
sg28
I22
ssI23
(dp948
g20
I900
sg21
I-240
sg22
I888
sg23
I-274
sg24
I111
sg8
g924
sg25
I15
sg12
I4
sg26
F271.18210305311095
sg27
I0
sg28
I23
ssI24
(dp949
g20
I900
sg21
I-240
sg22
I887
sg23
I-274
sg24
I111
sg8
g924
sg25
I15
sg12
I4
sg26
F271.27388918607176
sg27
I0
sg28
I24
ssI25
(dp950
g20
I900
sg21
I-120
sg22
I904
sg23
I-66
sg24
I95
sg8
g924
sg25
I15
sg12
I5
sg26
F271.3653653415745
sg27
I2
sg28
I25
ssI26
(dp951
g20
I900
sg21
I-120
sg22
I903
sg23
I-75
sg24
I95
sg8
g924
sg25
I15
sg12
I5
sg26
F271.6154803278132
sg27
I3
sg28
I26
ssI27
(dp952
g20
I900
sg21
I-120
sg22
I904
sg23
I-69
sg24
I95
sg8
g924
sg25
I15
sg12
I5
sg26
F271.78198943934285
sg27
I3
sg28
I27
ssI28
(dp953
g20
I900
sg21
I-360
sg22
I895
sg23
I-367
sg24
I127
sg8
g924
sg25
I15
sg12
I5
sg26
F271.94867697202244
sg27
I1
sg28
I28
ssI29
(dp954
g20
I900
sg21
I-360
sg22
I896
sg23
I-365
sg24
I127
sg8
g924
sg25
I15
sg12
I5
sg26
F272.1154394884502
sg27
I1
sg28
I29
ssI30
(dp955
g20
I900
sg21
I-120
sg22
I921
sg23
I-168
sg24
I95
sg8
g924
sg25
I15
sg12
I5
sg26
F272.28209455048955
sg27
I3
sg28
I30
ssI31
(dp956
g20
I900
sg21
I120
sg22
I885
sg23
I95
sg24
I63
sg8
g924
sg25
I15
sg12
I5
sg26
F272.4486183909694
sg27
I1
sg28
I31
ssI32
(dp957
g20
I900
sg21
I120
sg22
I882
sg23
I99
sg24
I63
sg8
g924
sg25
I15
sg12
I5
sg26
F272.62360434825405
sg27
I1
sg28
I32
ssI33
(dp958
g20
I900
sg21
I240
sg22
I855
sg23
I231
sg24
I47
sg8
g924
sg25
I15
sg12
I5
sg26
F272.80699116329924
sg27
I0
sg28
I33
ssI34
(dp959
g20
I780
sg21
I480
sg22
I786
sg23
I472
sg24
I14
sg8
g924
sg25
I15
sg12
I6
sg26
F272.8985610484874
sg27
I2
sg28
I34
ssI35
(dp960
g20
I780
sg21
I480
sg22
I785
sg23
I468
sg24
I14
sg8
g924
sg25
I15
sg12
I6
sg26
F273.1486120976906
sg27
I3
sg28
I35
ssI36
(dp961
g20
I180
sg21
I0
sg22
I177
sg23
I38
sg24
I73
sg8
g924
sg25
I15
sg12
I6
sg26
F273.3153511816972
sg27
I3
sg28
I36
ssI37
(dp962
g20
I180
sg21
I-360
sg22
I139
sg23
I-411
sg24
I121
sg8
g924
sg25
I15
sg12
I6
sg26
F273.48183786505206
sg27
I0
sg28
I37
ssI38
(dp963
g20
I180
sg21
I-480
sg22
I160
sg23
I-429
sg24
I137
sg8
g924
sg25
I15
sg12
I6
sg26
F273.5734408903786
sg27
I1
sg28
I38
ssI39
(dp964
g20
I180
sg21
I-480
sg22
I160
sg23
I-427
sg24
I137
sg8
g924
sg25
I15
sg12
I6
sg26
F273.73188590151585
sg27
I1
sg28
I39
ssI40
(dp965
g20
I180
sg21
I-480
sg22
I161
sg23
I-425
sg24
I137
sg8
g924
sg25
I15
sg12
I6
sg26
F273.8901293938302
sg27
I1
sg28
I40
ssI41
(dp966
g20
I-60
sg21
I-240
sg22
I-110
sg23
I-219
sg24
I103
sg8
g924
sg25
I15
sg12
I7
sg26
F274.04851448491854
sg27
I2
sg28
I41
ssI42
(dp967
g20
I-60
sg21
I-240
sg22
I-108
sg23
I-216
sg24
I103
sg8
g924
sg25
I15
sg12
I7
sg26
F274.2901556381421
sg27
I3
sg28
I42
ssI43
(dp968
g20
I-300
sg21
I120
sg22
I-276
sg23
I73
sg24
I53
sg8
g924
sg25
I15
sg12
I7
sg26
F274.4484634022406
sg27
I0
sg28
I43
ssI44
(dp969
g20
I-300
sg21
I120
sg22
I-279
sg23
I68
sg24
I53
sg8
g924
sg25
I15
sg12
I7
sg26
F274.54009655496566
sg27
I0
sg28
I44
ssI45
(dp970
g20
I-300
sg21
I120
sg22
I-278
sg23
I66
sg24
I53
sg8
g924
sg25
I15
sg12
I7
sg26
F274.62338810048095
sg27
I0
sg28
I45
ssI46
(dp971
g20
I-300
sg21
I0
sg22
I-313
sg23
I24
sg24
I69
sg8
g924
sg25
I15
sg12
I7
sg26
F274.70671646837263
sg27
I1
sg28
I46
ssI47
(dp972
g20
I-300
sg21
I0
sg22
I-314
sg23
I27
sg24
I69
sg8
g924
sg25
I15
sg12
I7
sg26
F274.8650095035209
sg27
I1
sg28
I47
ssI48
(dp973
g20
I-300
sg21
I0
sg22
I-313
sg23
I25
sg24
I69
sg8
g924
sg25
I15
sg12
I7
sg26
F275.0234548494068
sg27
I1
sg28
I48
ssI49
(dp974
g20
I-60
sg21
I240
sg22
I-74
sg23
I258
sg24
I39
sg8
g924
sg25
I15
sg12
I8
sg26
F275.18157950587056
sg27
I2
sg28
I49
ssI50
(dp975
g20
I-60
sg21
I240
sg22
I-76
sg23
I260
sg24
I39
sg8
g924
sg25
I15
sg12
I8
sg26
F275.4234586655439
sg27
I3
sg28
I50
ssI51
(dp976
g20
I60
sg21
I480
sg22
I58
sg23
I523
sg24
I8
sg8
g924
sg25
I15
sg12
I9
sg26
F275.5982022646431
sg27
I2
sg28
I51
ssI52
(dp977
g20
I60
sg21
I480
sg22
I53
sg23
I515
sg24
I8
sg8
g924
sg25
I15
sg12
I9
sg26
F275.848210131242
sg27
I3
sg28
I52
ssI53
(dp978
g20
I-180
sg21
I360
sg22
I-187
sg23
I398
sg24
I22
sg8
g924
sg25
I15
sg12
I9
sg26
F276.0149445287643
sg27
I1
sg28
I53
ssI54
(dp979
g20
I-180
sg21
I360
sg22
I-188
sg23
I397
sg24
I22
sg8
g924
sg25
I15
sg12
I9
sg26
F276.18152460705505
sg27
I1
sg28
I54
ssI55
(dp980
g20
I-180
sg21
I360
sg22
I-187
sg23
I389
sg24
I22
sg8
g924
sg25
I15
sg12
I9
sg26
F276.33996191896813
sg27
I1
sg28
I55
ssI56
(dp981
g20
I-300
sg21
I240
sg22
I-313
sg23
I254
sg24
I37
sg8
g924
sg25
I15
sg12
I9
sg26
F276.4982623185915
sg27
I1
sg28
I56
ssI57
(dp982
g20
I-300
sg21
I240
sg22
I-311
sg23
I252
sg24
I37
sg8
g924
sg25
I15
sg12
I9
sg26
F276.6648239856945
sg27
I1
sg28
I57
ssI58
(dp983
g20
I-420
sg21
I480
sg22
I-416
sg23
I491
sg24
I4
sg8
g924
sg25
I15
sg12
I10
sg26
F276.83157980714486
sg27
I2
sg28
I58
sssg80
I35
sg81
I1920
sg82
S'trial15.png'
p984
sg84
VTrial 2->trial15.png
p985
sg86
S'results\\P035\\trial_png\\trial15.png'
p986
sg88
g89
sg234
I5
sg235
I16
sg236
(lp987
I2
aI0
aI0
aI0
aI3
aI0
aI0
aI0
aI3
aI0
aI0
aI0
aI0
aI0
aI3
aI0
aI0
aI0
aI1
aI0
aI0
aI0
aI1
aI0
aI0
aI0
aI0
aI0
aI0
aI0
aI0
aI0
aI0
aI0
aI0
aI2
aI0
aI1
aI0
aI3
aI0
aI0
aI1
aI0
aI3
aI0
aI0
aI0
aI1
aI0
aI0
aI0
aI0
aI0
aI0
aI0
aI0
aI0
aI0
aI0
aI0
aI0
aI0
aI1
aI0
aI2
aI0
aI0
aI0
aI1
aI0
aI0
aI1
aI3
aI0
aI0
aI0
aI1
aI0
aI0
aI0
aI0
aI0
aI0
aI0
aI0
aI0
aI0
aI0
aI0
aI0
aI3
aI0
aI0
aI0
aI3
aI0
aI0
aI0
aI1
aI0
aI0
aI0
aI3
aI0
aI0
aI0
aI0
aI0
aI0
aI0
aI0
aI0
aI2
aI0
aI0
aI0
aI2
aI0
aI0
aI0
aI0
aI0
aI0
aI0
aI3
aI0
aI1
aI1
aI0
aI0
aI0
aI1
aI0
aI0
aI0
aI0
aI1
aI0
aI0
aI1
aI0
aI0
aI0
asg238
I9
sg239
I30
sg240
I1080
ssI16
(dp988
g2
I16
sg3
g4
sg5
I2
sg6
g7
sg8
VTrial 8
p989
sg10
g11
sg12
I10
sg13
g14
sg15
g16
sg17
(dp990
I1
(dp991
g20
I60
sg21
I0
sg22
I9
sg23
I-6
sg24
I72
sg8
g989
sg25
I16
sg12
I0
sg26
F280.0477361937851
sg27
I0
sg28
I1
ssI2
(dp992
g20
I60
sg21
I0
sg22
I10
sg23
I-4
sg24
I72
sg8
g989
sg25
I16
sg12
I0
sg26
F280.1394988943248
sg27
I0
sg28
I2
ssI3
(dp993
g20
I60
sg21
I0
sg22
I11
sg23
I-3
sg24
I72
sg8
g989
sg25
I16
sg12
I0
sg26
F280.23100316873297
sg27
I0
sg28
I3
ssI4
(dp994
g20
I-60
sg21
I120
sg22
I-51
sg23
I97
sg24
I55
sg8
g989
sg25
I16
sg12
I1
sg26
F280.33099466611156
sg27
I2
sg28
I4
ssI5
(dp995
g20
I-60
sg21
I120
sg22
I-50
sg23
I95
sg24
I55
sg8
g989
sg25
I16
sg12
I1
sg26
F280.5811404492465
sg27
I3
sg28
I5
ssI6
(dp996
g20
I-300
sg21
I0
sg22
I-297
sg23
I-25
sg24
I69
sg8
g989
sg25
I16
sg12
I1
sg26
F280.74771885379323
sg27
I1
sg28
I6
ssI7
(dp997
g20
I-300
sg21
I0
sg22
I-295
sg23
I-25
sg24
I69
sg8
g989
sg25
I16
sg12
I1
sg26
F280.9311056688384
sg27
I1
sg28
I7
ssI8
(dp998
g20
I-420
sg21
I-120
sg22
I-401
sg23
I-91
sg24
I84
sg8
g989
sg25
I16
sg12
I2
sg26
F281.1060829226526
sg27
I2
sg28
I8
ssI9
(dp999
g20
I-420
sg21
I-120
sg22
I-422
sg23
I-116
sg24
I84
sg8
g989
sg25
I16
sg12
I2
sg26
F281.35592709705134
sg27
I3
sg28
I9
ssI10
(dp1000
g20
I-300
sg21
I-360
sg22
I-340
sg23
I-371
sg24
I117
sg8
g989
sg25
I16
sg12
I3
sg26
F281.52259320580333
sg27
I2
sg28
I10
ssI11
(dp1001
g20
I-300
sg21
I-360
sg22
I-340
sg23
I-394
sg24
I117
sg8
g989
sg25
I16
sg12
I3
sg26
F281.79767309362205
sg27
I3
sg28
I11
ssI12
(dp1002
g20
I-540
sg21
I-360
sg22
I-526
sg23
I-368
sg24
I115
sg8
g989
sg25
I16
sg12
I3
sg26
F281.9643234691771
sg27
I1
sg28
I12
ssI13
(dp1003
g20
I-540
sg21
I-360
sg22
I-530
sg23
I-366
sg24
I115
sg8
g989
sg25
I16
sg12
I3
sg26
F282.1475857576406
sg27
I1
sg28
I13
ssI14
(dp1004
g20
I-780
sg21
I-120
sg22
I-794
sg23
I-118
sg24
I81
sg8
g989
sg25
I16
sg12
I3
sg26
F282.3142769725582
sg27
I1
sg28
I14
ssI15
(dp1005
g20
I-780
sg21
I-120
sg22
I-793
sg23
I-126
sg24
I81
sg8
g989
sg25
I16
sg12
I3
sg26
F282.48086776281343
sg27
I1
sg28
I15
ssI16
(dp1006
g20
I-780
sg21
I-120
sg22
I-820
sg23
I-102
sg24
I81
sg8
g989
sg25
I16
sg12
I3
sg26
F282.6642539083605
sg27
I1
sg28
I16
ssI17
(dp1007
g20
I-900
sg21
I0
sg22
I-862
sg23
I-5
sg24
I64
sg8
g989
sg25
I16
sg12
I3
sg26
F282.83079281254004
sg27
I1
sg28
I17
ssI18
(dp1008
g20
I-900
sg21
I0
sg22
I-868
sg23
I-4
sg24
I64
sg8
g989
sg25
I16
sg12
I3
sg26
F283.00567968415817
sg27
I1
sg28
I18
ssI19
(dp1009
g20
I-900
sg21
I0
sg22
I-867
sg23
I2
sg24
I64
sg8
g989
sg25
I16
sg12
I3
sg26
F283.17233206820583
sg27
I1
sg28
I19
ssI20
(dp1010
g20
I-900
sg21
I0
sg22
I-865
sg23
I3
sg24
I64
sg8
g989
sg25
I16
sg12
I3
sg26
F283.34741811540425
sg27
I1
sg28
I20
ssI21
(dp1011
g20
I-780
sg21
I360
sg22
I-750
sg23
I302
sg24
I17
sg8
g989
sg25
I16
sg12
I3
sg26
F283.52234616113356
sg27
I0
sg28
I21
ssI22
(dp1012
g20
I-780
sg21
I360
sg22
I-750
sg23
I308
sg24
I17
sg8
g989
sg25
I16
sg12
I3
sg26
F283.61400207678207
sg27
I0
sg28
I22
ssI23
(dp1013
g20
I-780
sg21
I360
sg22
I-751
sg23
I306
sg24
I17
sg8
g989
sg25
I16
sg12
I3
sg26
F283.7056057716063
sg27
I0
sg28
I23
ssI24
(dp1014
g20
I-780
sg21
I360
sg22
I-752
sg23
I303
sg24
I17
sg8
g989
sg25
I16
sg12
I3
sg26
F283.7973232810482
sg27
I0
sg28
I24
ssI25
(dp1015
g20
I-780
sg21
I240
sg22
I-751
sg23
I297
sg24
I33
sg8
g989
sg25
I16
sg12
I4
sg26
F283.88906890939506
sg27
I2
sg28
I25
ssI26
(dp1016
g20
I300
sg21
I120
sg22
I281
sg23
I104
sg24
I58
sg8
g989
sg25
I16
sg12
I4
sg26
F284.1389944277703
sg27
I0
sg28
I26
ssI27
(dp1017
g20
I300
sg21
I120
sg22
I284
sg23
I104
sg24
I58
sg8
g989
sg25
I16
sg12
I4
sg26
F284.2305743554243
sg27
I0
sg28
I27
ssI28
(dp1018
g20
I180
sg21
I240
sg22
I223
sg23
I225
sg24
I41
sg8
g989
sg25
I16
sg12
I4
sg26
F284.3140356186195
sg27
I1
sg28
I28
ssI29
(dp1019
g20
I180
sg21
I360
sg22
I126
sg23
I302
sg24
I25
sg8
g989
sg25
I16
sg12
I4
sg26
F284.48070005362706
sg27
I0
sg28
I29
ssI30
(dp1020
g20
I180
sg21
I360
sg22
I122
sg23
I301
sg24
I25
sg8
g989
sg25
I16
sg12
I4
sg26
F284.56383794940893
sg27
I0
sg28
I30
ssI31
(dp1021
g20
I-180
sg21
I360
sg22
I-164
sg23
I366
sg24
I22
sg8
g989
sg25
I16
sg12
I4
sg26
F284.6472225551115
sg27
I0
sg28
I31
ssI32
(dp1022
g20
I-180
sg21
I360
sg22
I-166
sg23
I369
sg24
I22
sg8
g989
sg25
I16
sg12
I4
sg26
F284.7304876554658
sg27
I0
sg28
I32
ssI33
(dp1023
g20
I-180
sg21
I360
sg22
I-167
sg23
I368
sg24
I22
sg8
g989
sg25
I16
sg12
I4
sg26
F284.813807319887
sg27
I0
sg28
I33
ssI34
(dp1024
g20
I-300
sg21
I360
sg22
I-339
sg23
I415
sg24
I21
sg8
g989
sg25
I16
sg12
I5
sg26
F284.9055629907002
sg27
I2
sg28
I34
ssI35
(dp1025
g20
I-300
sg21
I360
sg22
I-332
sg23
I415
sg24
I21
sg8
g989
sg25
I16
sg12
I5
sg26
F285.1555280094426
sg27
I3
sg28
I35
ssI36
(dp1026
g20
I-420
sg21
I480
sg22
I-410
sg23
I437
sg24
I4
sg8
g989
sg25
I16
sg12
I6
sg26
F285.3139271599839
sg27
I2
sg28
I36
ssI37
(dp1027
g20
I-420
sg21
I480
sg22
I-452
sg23
I467
sg24
I4
sg8
g989
sg25
I16
sg12
I6
sg26
F285.55544546037027
sg27
I3
sg28
I37
ssI38
(dp1028
g20
I-540
sg21
I360
sg22
I-535
sg23
I335
sg24
I19
sg8
g989
sg25
I16
sg12
I6
sg26
F285.7138844460278
sg27
I0
sg28
I38
ssI39
(dp1029
g20
I-540
sg21
I240
sg22
I-537
sg23
I276
sg24
I35
sg8
g989
sg25
I16
sg12
I6
sg26
F285.7970410877465
sg27
I1
sg28
I39
ssI40
(dp1030
g20
I-540
sg21
I240
sg22
I-540
sg23
I272
sg24
I35
sg8
g989
sg25
I16
sg12
I6
sg26
F285.955453293494
sg27
I1
sg28
I40
ssI41
(dp1031
g20
I-660
sg21
I360
sg22
I-624
sg23
I390
sg24
I18
sg8
g989
sg25
I16
sg12
I6
sg26
F286.11378549426036
sg27
I0
sg28
I41
ssI45
(dp1032
g20
I-660
sg21
I480
sg22
I-701
sg23
I539
sg24
I2
sg8
g989
sg25
I16
sg12
I7
sg26
F286.23034940418074
sg27
I2
sg28
I45
ssI50
(dp1033
g20
I-780
sg21
I480
sg22
I-797
sg23
I537
sg24
I1
sg8
g989
sg25
I16
sg12
I7
sg26
F286.50534694377666
sg27
I0
sg28
I50
ssI51
(dp1034
g20
I-900
sg21
I480
sg22
I-864
sg23
I521
sg24
I0
sg8
g989
sg25
I16
sg12
I7
sg26
F286.59693122316594
sg27
I1
sg28
I51
ssI52
(dp1035
g20
I-900
sg21
I480
sg22
I-865
sg23
I518
sg24
I0
sg8
g989
sg25
I16
sg12
I7
sg26
F286.76380855845764
sg27
I1
sg28
I52
ssI53
(dp1036
g20
I-900
sg21
I480
sg22
I-868
sg23
I514
sg24
I0
sg8
g989
sg25
I16
sg12
I7
sg26
F286.92204836853443
sg27
I1
sg28
I53
ssI54
(dp1037
g20
I-300
sg21
I360
sg22
I-243
sg23
I404
sg24
I21
sg8
g989
sg25
I16
sg12
I7
sg26
F287.0887091213044
sg27
I3
sg28
I54
ssI55
(dp1038
g20
I-300
sg21
I360
sg22
I-246
sg23
I400
sg24
I21
sg8
g989
sg25
I16
sg12
I7
sg26
F287.2468665831584
sg27
I3
sg28
I55
ssI56
(dp1039
g20
I-60
sg21
I360
sg22
I-66
sg23
I363
sg24
I23
sg8
g989
sg25
I16
sg12
I7
sg26
F287.4137569736563
sg27
I1
sg28
I56
ssI57
(dp1040
g20
I-60
sg21
I360
sg22
I-66
sg23
I365
sg24
I23
sg8
g989
sg25
I16
sg12
I7
sg26
F287.5802757929032
sg27
I1
sg28
I57
ssI58
(dp1041
g20
I-60
sg21
I360
sg22
I-65
sg23
I368
sg24
I23
sg8
g989
sg25
I16
sg12
I7
sg26
F287.7385326751728
sg27
I1
sg28
I58
ssI59
(dp1042
g20
I-660
sg21
I-360
sg22
I-607
sg23
I-363
sg24
I114
sg8
g989
sg25
I16
sg12
I7
sg26
F287.89686152845024
sg27
I0
sg28
I59
ssI60
(dp1043
g20
I-780
sg21
I-480
sg22
I-771
sg23
I-428
sg24
I129
sg8
g989
sg25
I16
sg12
I7
sg26
F287.9886885007736
sg27
I0
sg28
I60
ssI61
(dp1044
g20
I-900
sg21
I-480
sg22
I-898
sg23
I-433
sg24
I128
sg8
g989
sg25
I16
sg12
I7
sg26
F288.0718210405739
sg27
I1
sg28
I61
ssI62
(dp1045
g20
I-900
sg21
I-480
sg22
I-894
sg23
I-440
sg24
I128
sg8
g989
sg25
I16
sg12
I7
sg26
F288.2301917374607
sg27
I1
sg28
I62
ssI63
(dp1046
g20
I-900
sg21
I-480
sg22
I-887
sg23
I-442
sg24
I128
sg8
g989
sg25
I16
sg12
I7
sg26
F288.3967728199982
sg27
I1
sg28
I63
ssI64
(dp1047
g20
I-420
sg21
I-360
sg22
I-442
sg23
I-395
sg24
I116
sg8
g989
sg25
I16
sg12
I7
sg26
F288.555152555105
sg27
I0
sg28
I64
ssI65
(dp1048
g20
I-420
sg21
I-360
sg22
I-444
sg23
I-391
sg24
I116
sg8
g989
sg25
I16
sg12
I7
sg26
F288.64674386422075
sg27
I0
sg28
I65
ssI66
(dp1049
g20
I-300
sg21
I-360
sg22
I-302
sg23
I-367
sg24
I117
sg8
g989
sg25
I16
sg12
I7
sg26
F288.7301368386452
sg27
I3
sg28
I66
ssI67
(dp1050
g20
I-300
sg21
I-360
sg22
I-307
sg23
I-367
sg24
I117
sg8
g989
sg25
I16
sg12
I7
sg26
F288.8967005142413
sg27
I3
sg28
I67
ssI68
(dp1051
g20
I-300
sg21
I-360
sg22
I-307
sg23
I-369
sg24
I117
sg8
g989
sg25
I16
sg12
I7
sg26
F289.06348880633277
sg27
I3
sg28
I68
ssI69
(dp1052
g20
I-60
sg21
I-240
sg22
I-45
sg23
I-246
sg24
I103
sg8
g989
sg25
I16
sg12
I7
sg26
F289.2300374182296
sg27
I1
sg28
I69
ssI70
(dp1053
g20
I-420
sg21
I-360
sg22
I-476
sg23
I-374
sg24
I116
sg8
g989
sg25
I16
sg12
I7
sg26
F289.388382004704
sg27
I0
sg28
I70
ssI71
(dp1054
g20
I-420
sg21
I-360
sg22
I-479
sg23
I-373
sg24
I116
sg8
g989
sg25
I16
sg12
I7
sg26
F289.4717502077119
sg27
I0
sg28
I71
ssI72
(dp1055
g20
I-540
sg21
I-360
sg22
I-483
sg23
I-373
sg24
I115
sg8
g989
sg25
I16
sg12
I7
sg26
F289.55499689687804
sg27
I1
sg28
I72
ssI73
(dp1056
g20
I-540
sg21
I-360
sg22
I-540
sg23
I-374
sg24
I115
sg8
g989
sg25
I16
sg12
I7
sg26
F289.7134459250019
sg27
I1
sg28
I73
ssI74
(dp1057
g20
I-540
sg21
I-360
sg22
I-529
sg23
I-380
sg24
I115
sg8
g989
sg25
I16
sg12
I7
sg26
F289.87176339681764
sg27
I1
sg28
I74
ssI75
(dp1058
g20
I60
sg21
I-240
sg22
I93
sg23
I-186
sg24
I104
sg8
g989
sg25
I16
sg12
I7
sg26
F290.0383170299474
sg27
I0
sg28
I75
ssI76
(dp1059
g20
I180
sg21
I-120
sg22
I181
sg23
I-99
sg24
I89
sg8
g989
sg25
I16
sg12
I8
sg26
F290.12172841556
sg27
I2
sg28
I76
ssI77
(dp1060
g20
I180
sg21
I-120
sg22
I181
sg23
I-104
sg24
I89
sg8
g989
sg25
I16
sg12
I8
sg26
F290.3632102283191
sg27
I3
sg28
I77
ssI78
(dp1061
g20
I300
sg21
I-480
sg22
I255
sg23
I-426
sg24
I138
sg8
g989
sg25
I16
sg12
I8
sg26
F290.5299134941961
sg27
I0
sg28
I78
ssI79
(dp1062
g20
I300
sg21
I-480
sg22
I253
sg23
I-426
sg24
I138
sg8
g989
sg25
I16
sg12
I8
sg26
F290.61321006094477
sg27
I0
sg28
I79
ssI80
(dp1063
g20
I300
sg21
I-480
sg22
I251
sg23
I-428
sg24
I138
sg8
g989
sg25
I16
sg12
I8
sg26
F290.7049148499291
sg27
I0
sg28
I80
ssI81
(dp1064
g20
I300
sg21
I-480
sg22
I249
sg23
I-427
sg24
I138
sg8
g989
sg25
I16
sg12
I8
sg26
F290.788242213574
sg27
I0
sg28
I81
ssI82
(dp1065
g20
I300
sg21
I-480
sg22
I248
sg23
I-428
sg24
I138
sg8
g989
sg25
I16
sg12
I8
sg26
F290.8715257251165
sg27
I0
sg28
I82
ssI83
(dp1066
g20
I300
sg21
I-360
sg22
I282
sg23
I-368
sg24
I122
sg8
g989
sg25
I16
sg12
I8
sg26
F290.96309761879775
sg27
I1
sg28
I83
ssI84
(dp1067
g20
I300
sg21
I-360
sg22
I283
sg23
I-366
sg24
I122
sg8
g989
sg25
I16
sg12
I8
sg26
F291.1298490885124
sg27
I1
sg28
I84
ssI85
(dp1068
g20
I420
sg21
I0
sg22
I401
sg23
I32
sg24
I75
sg8
g989
sg25
I16
sg12
I9
sg26
F291.29653595169475
sg27
I2
sg28
I85
ssI86
(dp1069
g20
I420
sg21
I0
sg22
I398
sg23
I24
sg24
I75
sg8
g989
sg25
I16
sg12
I9
sg26
F291.538211249303
sg27
I3
sg28
I86
ssI87
(dp1070
g20
I420
sg21
I0
sg22
I435
sg23
I49
sg24
I75
sg8
g989
sg25
I16
sg12
I9
sg26
F291.70486831983544
sg27
I3
sg28
I87
ssI88
(dp1071
g20
I540
sg21
I120
sg22
I535
sg23
I134
sg24
I60
sg8
g989
sg25
I16
sg12
I9
sg26
F291.871382452598
sg27
I1
sg28
I88
ssI89
(dp1072
g20
I540
sg21
I120
sg22
I537
sg23
I129
sg24
I60
sg8
g989
sg25
I16
sg12
I9
sg26
F292.03815869372966
sg27
I1
sg28
I89
ssI90
(dp1073
g20
I540
sg21
I120
sg22
I537
sg23
I128
sg24
I60
sg8
g989
sg25
I16
sg12
I9
sg26
F292.19635197371326
sg27
I1
sg28
I90
ssI91
(dp1074
g20
I660
sg21
I-120
sg22
I669
sg23
I-112
sg24
I93
sg8
g989
sg25
I16
sg12
I10
sg26
F292.36298929406166
sg27
I2
sg28
I91
sssg80
I35
sg81
I1920
sg82
S'trial16.png'
p1075
sg84
VTrial 8->trial16.png
p1076
sg86
S'results\\P035\\trial_png\\trial16.png'
p1077
sg88
g89
sg234
I6
sg235
I16
sg236
(lp1078
I1
aI0
aI3
aI0
aI3
aI0
aI0
aI0
aI0
aI0
aI2
aI0
aI2
aI0
aI0
aI0
aI0
aI0
aI0
aI0
aI0
aI3
aI0
aI1
aI0
aI0
aI0
aI0
aI0
aI0
aI1
aI0
aI0
aI3
aI0
aI1
aI0
aI0
aI0
aI0
aI0
aI1
aI0
aI0
aI0
aI0
aI0
aI0
aI0
aI0
aI0
aI0
aI0
aI0
aI0
aI3
aI0
aI0
aI0
aI0
aI1
aI0
aI0
aI0
aI1
aI0
aI0
aI0
aI0
aI1
aI0
aI0
aI0
aI0
aI0
aI3
aI0
aI0
aI2
aI0
aI0
aI1
aI0
aI0
aI3
aI0
aI0
aI0
aI0
aI3
aI0
aI0
aI0
aI3
aI0
aI1
aI0
aI0
aI0
aI0
aI0
aI0
aI0
aI1
aI0
aI0
aI0
aI0
aI0
aI0
aI0
aI0
aI0
aI0
aI0
aI1
aI0
aI3
aI0
aI0
aI0
aI0
aI1
aI0
aI0
aI0
aI0
aI0
aI1
aI0
aI0
aI0
aI0
aI0
aI0
aI0
aI0
aI2
aI0
aI0
aI2
aI0
aI1
aI0
asg238
I9
sg239
I30
sg240
I1080
ssI17
(dp1079
g2
I17
sg3
g4
sg5
I2
sg6
g7
sg8
VTrial 5
p1080
sg10
g11
sg12
I10
sg13
g14
sg15
g16
sg17
(dp1081
I1
(dp1082
g20
I-60
sg21
I0
sg22
I-5
sg23
I-2
sg24
I71
sg8
g1080
sg25
I17
sg12
I0
sg26
F295.6959308596288
sg27
I0
sg28
I1
ssI2
(dp1083
g20
I-60
sg21
I0
sg22
I-5
sg23
I-2
sg24
I71
sg8
g1080
sg25
I17
sg12
I0
sg26
F295.787702598388
sg27
I0
sg28
I2
ssI3
(dp1084
g20
I-60
sg21
I0
sg22
I-3
sg23
I-3
sg24
I71
sg8
g1080
sg25
I17
sg12
I0
sg26
F295.8792868777773
sg27
I0
sg28
I3
ssI4
(dp1085
g20
I-60
sg21
I-120
sg22
I-45
sg23
I-141
sg24
I87
sg8
g1080
sg25
I17
sg12
I0
sg26
F295.9710576122902
sg27
I1
sg28
I4
ssI5
(dp1086
g20
I-60
sg21
I-120
sg22
I-47
sg23
I-144
sg24
I87
sg8
g1080
sg25
I17
sg12
I0
sg26
F296.13768790291215
sg27
I1
sg28
I5
ssI6
(dp1087
g20
I180
sg21
I0
sg22
I210
sg23
I-54
sg24
I73
sg8
g1080
sg25
I17
sg12
I0
sg26
F296.30427266768766
sg27
I0
sg28
I6
ssI7
(dp1088
g20
I180
sg21
I0
sg22
I214
sg23
I-53
sg24
I73
sg8
g1080
sg25
I17
sg12
I0
sg26
F296.4041754566142
sg27
I0
sg28
I7
ssI8
(dp1089
g20
I180
sg21
I0
sg22
I212
sg23
I-50
sg24
I73
sg8
g1080
sg25
I17
sg12
I0
sg26
F296.49598100501
sg27
I0
sg28
I8
ssI9
(dp1090
g20
I180
sg21
I0
sg22
I211
sg23
I-48
sg24
I73
sg8
g1080
sg25
I17
sg12
I0
sg26
F296.5875508901977
sg27
I0
sg28
I9
ssI10
(dp1091
g20
I180
sg21
I0
sg22
I210
sg23
I-51
sg24
I73
sg8
g1080
sg25
I17
sg12
I0
sg26
F296.67909901670873
sg27
I0
sg28
I10
ssI11
(dp1092
g20
I180
sg21
I0
sg22
I210
sg23
I-52
sg24
I73
sg8
g1080
sg25
I17
sg12
I0
sg26
F296.77082556437017
sg27
I0
sg28
I11
ssI12
(dp1093
g20
I300
sg21
I0
sg22
I315
sg23
I23
sg24
I74
sg8
g1080
sg25
I17
sg12
I0
sg26
F296.87097439371973
sg27
I1
sg28
I12
ssI13
(dp1094
g20
I300
sg21
I0
sg22
I316
sg23
I23
sg24
I74
sg8
g1080
sg25
I17
sg12
I0
sg26
F297.03743697515574
sg27
I1
sg28
I13
ssI14
(dp1095
g20
I420
sg21
I0
sg22
I385
sg23
I39
sg24
I75
sg8
g1080
sg25
I17
sg12
I0
sg26
F297.2124791702513
sg27
I0
sg28
I14
ssI15
(dp1096
g20
I540
sg21
I120
sg22
I544
sg23
I126
sg24
I60
sg8
g1080
sg25
I17
sg12
I0
sg26
F297.2958406782818
sg27
I1
sg28
I15
ssI16
(dp1097
g20
I540
sg21
I120
sg22
I550
sg23
I128
sg24
I60
sg8
g1080
sg25
I17
sg12
I0
sg26
F297.4542066886843
sg27
I1
sg28
I16
ssI17
(dp1098
g20
I540
sg21
I120
sg22
I550
sg23
I128
sg24
I60
sg8
g1080
sg25
I17
sg12
I0
sg26
F297.6207603218145
sg27
I1
sg28
I17
ssI18
(dp1099
g20
I780
sg21
I240
sg22
I767
sg23
I200
sg24
I46
sg8
g1080
sg25
I17
sg12
I1
sg26
F297.78737354024406
sg27
I2
sg28
I18
ssI19
(dp1100
g20
I780
sg21
I240
sg22
I771
sg23
I198
sg24
I46
sg8
g1080
sg25
I17
sg12
I1
sg26
F298.03733755474013
sg27
I3
sg28
I19
ssI20
(dp1101
g20
I780
sg21
I480
sg22
I783
sg23
I443
sg24
I14
sg8
g1080
sg25
I17
sg12
I1
sg26
F298.20404684609684
sg27
I0
sg28
I20
ssI21
(dp1102
g20
I660
sg21
I480
sg22
I630
sg23
I514
sg24
I13
sg8
g1080
sg25
I17
sg12
I2
sg26
F298.2957626817938
sg27
I2
sg28
I21
ssI22
(dp1103
g20
I420
sg21
I360
sg22
I412
sg23
I358
sg24
I27
sg8
g1080
sg25
I17
sg12
I3
sg26
F298.55402679463896
sg27
I2
sg28
I22
ssI23
(dp1104
g20
I420
sg21
I360
sg22
I413
sg23
I357
sg24
I27
sg8
g1080
sg25
I17
sg12
I3
sg26
F298.79566024863834
sg27
I3
sg28
I23
ssI24
(dp1105
g20
I300
sg21
I480
sg22
I295
sg23
I487
sg24
I10
sg8
g1080
sg25
I17
sg12
I3
sg26
F298.95401387333277
sg27
I1
sg28
I24
ssI25
(dp1106
g20
I300
sg21
I480
sg22
I290
sg23
I491
sg24
I10
sg8
g1080
sg25
I17
sg12
I3
sg26
F299.1122955270189
sg27
I1
sg28
I25
ssI26
(dp1107
g20
I300
sg21
I480
sg22
I321
sg23
I476
sg24
I10
sg8
g1080
sg25
I17
sg12
I3
sg26
F299.2705885621667
sg27
I1
sg28
I26
ssI27
(dp1108
g20
I900
sg21
I480
sg22
I891
sg23
I453
sg24
I15
sg8
g1080
sg25
I17
sg12
I3
sg26
F299.43734605736154
sg27
I1
sg28
I27
ssI28
(dp1109
g20
I900
sg21
I480
sg22
I887
sg23
I451
sg24
I15
sg8
g1080
sg25
I17
sg12
I3
sg26
F299.60388964802496
sg27
I1
sg28
I28
ssI29
(dp1110
g20
I900
sg21
I480
sg22
I890
sg23
I452
sg24
I15
sg8
g1080
sg25
I17
sg12
I3
sg26
F299.7704891417511
sg27
I1
sg28
I29
ssI30
(dp1111
g20
I900
sg21
I-240
sg22
I891
sg23
I-194
sg24
I111
sg8
g1080
sg25
I17
sg12
I3
sg26
F299.9370973389473
sg27
I0
sg28
I30
ssI31
(dp1112
g20
I900
sg21
I-120
sg22
I875
sg23
I-119
sg24
I95
sg8
g1080
sg25
I17
sg12
I4
sg26
F300.02873651715254
sg27
I2
sg28
I31
ssI32
(dp1113
g20
I900
sg21
I-120
sg22
I871
sg23
I-120
sg24
I95
sg8
g1080
sg25
I17
sg12
I4
sg26
F300.2787668119254
sg27
I3
sg28
I32
ssI33
(dp1114
g20
I780
sg21
I-240
sg22
I728
sg23
I-273
sg24
I110
sg8
g1080
sg25
I17
sg12
I4
sg26
F300.4453512419518
sg27
I0
sg28
I33
ssI34
(dp1115
g20
I780
sg21
I-240
sg22
I731
sg23
I-272
sg24
I110
sg8
g1080
sg25
I17
sg12
I4
sg26
F300.53697401746194
sg27
I0
sg28
I34
ssI35
(dp1116
g20
I660
sg21
I-240
sg22
I674
sg23
I-275
sg24
I109
sg8
g1080
sg25
I17
sg12
I5
sg26
F300.63701405342727
sg27
I2
sg28
I35
ssI36
(dp1117
g20
I660
sg21
I-240
sg22
I674
sg23
I-276
sg24
I109
sg8
g1080
sg25
I17
sg12
I5
sg26
F300.88706342888645
sg27
I3
sg28
I36
ssI37
(dp1118
g20
I780
sg21
I-360
sg22
I779
sg23
I-359
sg24
I126
sg8
g1080
sg25
I17
sg12
I5
sg26
F301.0620453691845
sg27
I1
sg28
I37
ssI38
(dp1119
g20
I780
sg21
I-360
sg22
I777
sg23
I-357
sg24
I126
sg8
g1080
sg25
I17
sg12
I5
sg26
F301.2203377348351
sg27
I1
sg28
I38
ssI39
(dp1120
g20
I660
sg21
I-360
sg22
I650
sg23
I-412
sg24
I125
sg8
g1080
sg25
I17
sg12
I5
sg26
F301.37861570628365
sg27
I0
sg28
I39
ssI40
(dp1121
g20
I300
sg21
I-480
sg22
I277
sg23
I-478
sg24
I138
sg8
g1080
sg25
I17
sg12
I5
sg26
F301.46188013714027
sg27
I0
sg28
I40
ssI41
(dp1122
g20
I300
sg21
I-480
sg22
I275
sg23
I-478
sg24
I138
sg8
g1080
sg25
I17
sg12
I5
sg26
F301.5535825828824
sg27
I0
sg28
I41
ssI42
(dp1123
g20
I420
sg21
I-480
sg22
I392
sg23
I-462
sg24
I139
sg8
g1080
sg25
I17
sg12
I6
sg26
F301.6368490222321
sg27
I2
sg28
I42
ssI43
(dp1124
g20
I420
sg21
I-480
sg22
I390
sg23
I-460
sg24
I139
sg8
g1080
sg25
I17
sg12
I6
sg26
F301.8786612321305
sg27
I3
sg28
I43
ssI44
(dp1125
g20
I180
sg21
I-480
sg22
I166
sg23
I-458
sg24
I137
sg8
g1080
sg25
I17
sg12
I6
sg26
F302.03693016535954
sg27
I1
sg28
I44
ssI45
(dp1126
g20
I180
sg21
I-480
sg22
I166
sg23
I-460
sg24
I137
sg8
g1080
sg25
I17
sg12
I6
sg26
F302.1952456286822
sg27
I1
sg28
I45
ssI46
(dp1127
g20
I180
sg21
I-480
sg22
I166
sg23
I-458
sg24
I137
sg8
g1080
sg25
I17
sg12
I6
sg26
F302.35361297808004
sg27
I1
sg28
I46
ssI47
(dp1128
g20
I-60
sg21
I-480
sg22
I-60
sg23
I-454
sg24
I135
sg8
g1080
sg25
I17
sg12
I7
sg26
F302.52852093887714
sg27
I2
sg28
I47
ssI48
(dp1129
g20
I-60
sg21
I-480
sg22
I-81
sg23
I-459
sg24
I135
sg8
g1080
sg25
I17
sg12
I7
sg26
F302.770184185526
sg27
I3
sg28
I48
ssI49
(dp1130
g20
I-300
sg21
I-360
sg22
I-293
sg23
I-369
sg24
I117
sg8
g1080
sg25
I17
sg12
I8
sg26
F302.92848659364245
sg27
I2
sg28
I49
ssI50
(dp1131
g20
I-300
sg21
I-120
sg22
I-293
sg23
I-129
sg24
I85
sg8
g1080
sg25
I17
sg12
I8
sg26
F303.1701946966409
sg27
I1
sg28
I50
ssI51
(dp1132
g20
I-300
sg21
I-120
sg22
I-302
sg23
I-119
sg24
I85
sg8
g1080
sg25
I17
sg12
I8
sg26
F303.3451167168905
sg27
I1
sg28
I51
ssI52
(dp1133
g20
I-300
sg21
I-120
sg22
I-301
sg23
I-117
sg24
I85
sg8
g1080
sg25
I17
sg12
I8
sg26
F303.5200882799736
sg27
I1
sg28
I52
ssI53
(dp1134
g20
I-540
sg21
I-240
sg22
I-549
sg23
I-199
sg24
I99
sg8
g1080
sg25
I17
sg12
I8
sg26
F303.68669145593685
sg27
I1
sg28
I53
ssI54
(dp1135
g20
I-300
sg21
I240
sg22
I-328
sg23
I281
sg24
I37
sg8
g1080
sg25
I17
sg12
I9
sg26
F303.85336626815933
sg27
I2
sg28
I54
ssI55
(dp1136
g20
I-300
sg21
I240
sg22
I-325
sg23
I275
sg24
I37
sg8
g1080
sg25
I17
sg12
I9
sg26
F304.10345715247877
sg27
I3
sg28
I55
ssI56
(dp1137
g20
I-420
sg21
I480
sg22
I-430
sg23
I502
sg24
I4
sg8
g1080
sg25
I17
sg12
I9
sg26
F304.2784069568852
sg27
I1
sg28
I56
ssI57
(dp1138
g20
I-420
sg21
I480
sg22
I-434
sg23
I501
sg24
I4
sg8
g1080
sg25
I17
sg12
I9
sg26
F304.4533400238479
sg27
I1
sg28
I57
ssI60
(dp1139
g20
I-660
sg21
I480
sg22
I-684
sg23
I525
sg24
I2
sg8
g1080
sg25
I17
sg12
I10
sg26
F304.6449710341799
sg27
I2
sg28
I60
sssg80
I35
sg81
I1920
sg82
S'trial17.png'
p1140
sg84
VTrial 5->trial17.png
p1141
sg86
S'results\\P035\\trial_png\\trial17.png'
p1142
sg88
g89
sg234
I7
sg235
I16
sg236
(lp1143
I2
aI0
aI3
aI0
aI1
aI0
aI0
aI0
aI0
aI0
aI1
aI0
aI0
aI3
aI0
aI1
aI0
aI0
aI0
aI0
aI0
aI0
aI0
aI1
aI0
aI0
aI0
aI3
aI0
aI0
aI0
aI0
aI0
aI1
aI0
aI0
aI0
aI3
aI0
aI0
aI2
aI0
aI0
aI0
aI0
aI0
aI3
aI0
aI0
aI0
aI0
aI1
aI0
aI0
aI0
aI0
aI0
aI0
aI0
aI0
aI1
aI0
aI0
aI0
aI2
aI0
aI0
aI0
aI0
aI0
aI0
aI0
aI0
aI0
aI1
aI0
aI0
aI0
aI0
aI0
aI0
aI0
aI2
aI0
aI0
aI1
aI0
aI1
aI0
aI2
aI0
aI0
aI0
aI0
aI0
aI3
aI0
aI0
aI0
aI1
aI0
aI0
aI0
aI0
aI0
aI0
aI0
aI0
aI0
aI3
aI0
aI0
aI1
aI0
aI1
aI0
aI0
aI3
aI0
aI0
aI0
aI0
aI0
aI0
aI0
aI0
aI1
aI0
aI0
aI0
aI0
aI0
aI0
aI0
aI0
aI3
aI0
aI1
aI0
aI3
aI0
aI0
aI0
aI0
asg238
I9
sg239
I30
sg240
I1080
ssI18
(dp1144
g2
I18
sg3
g4
sg5
I2
sg6
g7
sg8
VTrial 4
p1145
sg10
g11
sg12
I10
sg13
g14
sg15
g16
sg17
(dp1146
I1
(dp1147
g20
I60
sg21
I0
sg22
I1
sg23
I-1
sg24
I72
sg8
g1145
sg25
I18
sg12
I0
sg26
F307.9945717122473
sg27
I0
sg28
I1
ssI2
(dp1148
g20
I-60
sg21
I0
sg22
I-1
sg23
I2
sg24
I71
sg8
g1145
sg25
I18
sg12
I0
sg26
F308.08619917424176
sg27
I0
sg28
I2
ssI3
(dp1149
g20
I-60
sg21
I0
sg22
I-2
sg23
I3
sg24
I71
sg8
g1145
sg25
I18
sg12
I0
sg26
F308.1944793885077
sg27
I0
sg28
I3
ssI4
(dp1150
g20
I-180
sg21
I120
sg22
I-191
sg23
I160
sg24
I54
sg8
g1145
sg25
I18
sg12
I0
sg26
F308.2862410848006
sg27
I0
sg28
I4
ssI5
(dp1151
g20
I-180
sg21
I120
sg22
I-191
sg23
I157
sg24
I54
sg8
g1145
sg25
I18
sg12
I0
sg26
F308.3695741391766
sg27
I0
sg28
I5
ssI6
(dp1152
g20
I-300
sg21
I120
sg22
I-278
sg23
I128
sg24
I53
sg8
g1145
sg25
I18
sg12
I1
sg26
F308.4528573159705
sg27
I2
sg28
I6
ssI7
(dp1153
g20
I-300
sg21
I120
sg22
I-276
sg23
I125
sg24
I53
sg8
g1145
sg25
I18
sg12
I1
sg26
F308.6944432356295
sg27
I3
sg28
I7
ssI8
(dp1154
g20
I-300
sg21
I120
sg22
I-275
sg23
I123
sg24
I53
sg8
g1145
sg25
I18
sg12
I1
sg26
F308.8694740492633
sg27
I3
sg28
I8
ssI9
(dp1155
g20
I60
sg21
I120
sg22
I66
sg23
I117
sg24
I56
sg8
g1145
sg25
I18
sg12
I1
sg26
F309.027722228062
sg27
I1
sg28
I9
ssI10
(dp1156
g20
I60
sg21
I120
sg22
I64
sg23
I116
sg24
I56
sg8
g1145
sg25
I18
sg12
I1
sg26
F309.1943669128859
sg27
I1
sg28
I10
ssI11
(dp1157
g20
I60
sg21
I120
sg22
I66
sg23
I117
sg24
I56
sg8
g1145
sg25
I18
sg12
I1
sg26
F309.3526934229212
sg27
I1
sg28
I11
ssI12
(dp1158
g20
I-60
sg21
I-120
sg22
I-40
sg23
I-121
sg24
I87
sg8
g1145
sg25
I18
sg12
I2
sg26
F309.51102394994314
sg27
I2
sg28
I12
ssI13
(dp1159
g20
I-60
sg21
I-120
sg22
I-43
sg23
I-123
sg24
I87
sg8
g1145
sg25
I18
sg12
I2
sg26
F309.7528073714384
sg27
I3
sg28
I13
ssI14
(dp1160
g20
I-300
sg21
I-120
sg22
I-283
sg23
I-135
sg24
I85
sg8
g1145
sg25
I18
sg12
I2
sg26
F309.9193579918283
sg27
I1
sg28
I14
ssI15
(dp1161
g20
I-300
sg21
I-120
sg22
I-283
sg23
I-134
sg24
I85
sg8
g1145
sg25
I18
sg12
I2
sg26
F310.0860599187099
sg27
I1
sg28
I15
ssI16
(dp1162
g20
I-300
sg21
I-120
sg22
I-280
sg23
I-137
sg24
I85
sg8
g1145
sg25
I18
sg12
I2
sg26
F310.2525315383655
sg27
I1
sg28
I16
ssI17
(dp1163
g20
I-300
sg21
I-120
sg22
I-278
sg23
I-137
sg24
I85
sg8
g1145
sg25
I18
sg12
I2
sg26
F310.4192840123269
sg27
I1
sg28
I17
ssI18
(dp1164
g20
I-540
sg21
I-240
sg22
I-534
sg23
I-206
sg24
I99
sg8
g1145
sg25
I18
sg12
I2
sg26
F310.585920328429
sg27
I1
sg28
I18
ssI19
(dp1165
g20
I-540
sg21
I-240
sg22
I-534
sg23
I-205
sg24
I99
sg8
g1145
sg25
I18
sg12
I2
sg26
F310.752655395449
sg27
I1
sg28
I19
ssI20
(dp1166
g20
I-540
sg21
I-240
sg22
I-535
sg23
I-204
sg24
I99
sg8
g1145
sg25
I18
sg12
I2
sg26
F310.92763131026777
sg27
I1
sg28
I20
ssI21
(dp1167
g20
I-660
sg21
I0
sg22
I-621
sg23
I0
sg24
I66
sg8
g1145
sg25
I18
sg12
I3
sg26
F311.09426528312724
sg27
I2
sg28
I21
ssI22
(dp1168
g20
I-660
sg21
I0
sg22
I-626
sg23
I6
sg24
I66
sg8
g1145
sg25
I18
sg12
I3
sg26
F311.3440716309033
sg27
I3
sg28
I22
ssI23
(dp1169
g20
I-540
sg21
I240
sg22
I-562
sg23
I263
sg24
I35
sg8
g1145
sg25
I18
sg12
I4
sg26
F311.5109516441862
sg27
I2
sg28
I23
ssI24
(dp1170
g20
I-540
sg21
I240
sg22
I-567
sg23
I267
sg24
I35
sg8
g1145
sg25
I18
sg12
I4
sg26
F311.7690433613611
sg27
I3
sg28
I24
ssI25
(dp1171
g20
I-780
sg21
I480
sg22
I-722
sg23
I489
sg24
I1
sg8
g1145
sg25
I18
sg12
I4
sg26
F311.9356565797907
sg27
I0
sg28
I25
ssI26
(dp1172
g20
I-780
sg21
I480
sg22
I-721
sg23
I484
sg24
I1
sg8
g1145
sg25
I18
sg12
I4
sg26
F312.0273372668562
sg27
I0
sg28
I26
ssI27
(dp1173
g20
I-780
sg21
I360
sg22
I-791
sg23
I331
sg24
I17
sg8
g1145
sg25
I18
sg12
I4
sg26
F312.1189707543299
sg27
I0
sg28
I27
ssI28
(dp1174
g20
I-780
sg21
I360
sg22
I-790
sg23
I331
sg24
I17
sg8
g1145
sg25
I18
sg12
I4
sg26
F312.2106742043188
sg27
I0
sg28
I28
ssI29
(dp1175
g20
I-780
sg21
I360
sg22
I-789
sg23
I329
sg24
I17
sg8
g1145
sg25
I18
sg12
I4
sg26
F312.3024673670061
sg27
I0
sg28
I29
ssI30
(dp1176
g20
I-780
sg21
I360
sg22
I-791
sg23
I329
sg24
I17
sg8
g1145
sg25
I18
sg12
I4
sg26
F312.3941303123811
sg27
I0
sg28
I30
ssI31
(dp1177
g20
I-780
sg21
I360
sg22
I-793
sg23
I331
sg24
I17
sg8
g1145
sg25
I18
sg12
I4
sg26
F312.48559776441334
sg27
I0
sg28
I31
ssI32
(dp1178
g20
I-780
sg21
I480
sg22
I-808
sg23
I449
sg24
I1
sg8
g1145
sg25
I18
sg12
I4
sg26
F312.5772961931689
sg27
I0
sg28
I32
ssI33
(dp1179
g20
I-780
sg21
I480
sg22
I-816
sg23
I538
sg24
I1
sg8
g1145
sg25
I18
sg12
I4
sg26
F312.66058070895815
sg27
I0
sg28
I33
ssI162
(dp1180
g20
I-900
sg21
I0
sg22
I-845
sg23
I-5
sg24
I64
sg8
g1145
sg25
I18
sg12
I6
sg26
F316.0436807111673
sg27
I1
sg28
I162
ssI155
(dp1181
g20
I-300
sg21
I360
sg22
I-324
sg23
I411
sg24
I21
sg8
g1145
sg25
I18
sg12
I5
sg26
F314.752005982632
sg27
I1
sg28
I155
ssI164
(dp1182
g20
I-780
sg21
I-240
sg22
I-788
sg23
I-241
sg24
I97
sg8
g1145
sg25
I18
sg12
I6
sg26
F316.36857826127425
sg27
I1
sg28
I164
ssI165
(dp1183
g20
I-540
sg21
I-240
sg22
I-555
sg23
I-240
sg24
I99
sg8
g1145
sg25
I18
sg12
I6
sg26
F316.5353334132269
sg27
I1
sg28
I165
ssI166
(dp1184
g20
I-540
sg21
I-240
sg22
I-556
sg23
I-242
sg24
I99
sg8
g1145
sg25
I18
sg12
I6
sg26
F316.70189876256745
sg27
I1
sg28
I166
ssI167
(dp1185
g20
I-540
sg21
I-240
sg22
I-556
sg23
I-237
sg24
I99
sg8
g1145
sg25
I18
sg12
I6
sg26
F316.8689588707448
sg27
I1
sg28
I167
ssI168
(dp1186
g20
I-540
sg21
I-240
sg22
I-554
sg23
I-242
sg24
I99
sg8
g1145
sg25
I18
sg12
I6
sg26
F317.02686024970944
sg27
I1
sg28
I168
ssI156
(dp1187
g20
I-300
sg21
I360
sg22
I-327
sg23
I405
sg24
I21
sg8
g1145
sg25
I18
sg12
I5
sg26
F314.9270270885486
sg27
I1
sg28
I156
ssI170
(dp1188
g20
I-660
sg21
I-480
sg22
I-625
sg23
I-427
sg24
I130
sg8
g1145
sg25
I18
sg12
I7
sg26
F317.2684732840271
sg27
I2
sg28
I170
ssI171
(dp1189
g20
I-660
sg21
I-480
sg22
I-630
sg23
I-430
sg24
I130
sg8
g1145
sg25
I18
sg12
I7
sg26
F317.5100183643235
sg27
I3
sg28
I171
ssI172
(dp1190
g20
I-900
sg21
I-480
sg22
I-899
sg23
I-457
sg24
I128
sg8
g1145
sg25
I18
sg12
I7
sg26
F317.6683743322601
sg27
I1
sg28
I172
ssI173
(dp1191
g20
I-900
sg21
I-480
sg22
I-901
sg23
I-461
sg24
I128
sg8
g1145
sg25
I18
sg12
I7
sg26
F317.83518806526536
sg27
I1
sg28
I173
ssI174
(dp1192
g20
I-540
sg21
I-480
sg22
I-577
sg23
I-431
sg24
I131
sg8
g1145
sg25
I18
sg12
I7
sg26
F317.9934245278537
sg27
I0
sg28
I174
ssI157
(dp1193
g20
I-60
sg21
I360
sg22
I-68
sg23
I383
sg24
I23
sg8
g1145
sg25
I18
sg12
I6
sg26
F315.093673447117
sg27
I2
sg28
I157
ssI176
(dp1194
g20
I-180
sg21
I-360
sg22
I-197
sg23
I-336
sg24
I118
sg8
g1145
sg25
I18
sg12
I8
sg26
F318.318396057462
sg27
I3
sg28
I176
ssI177
(dp1195
g20
I-60
sg21
I-120
sg22
I-36
sg23
I-121
sg24
I87
sg8
g1145
sg25
I18
sg12
I8
sg26
F318.4849520338339
sg27
I3
sg28
I177
ssI178
(dp1196
g20
I-60
sg21
I-120
sg22
I-38
sg23
I-118
sg24
I87
sg8
g1145
sg25
I18
sg12
I8
sg26
F318.66006753893316
sg27
I3
sg28
I178
ssI179
(dp1197
g20
I-60
sg21
I-120
sg22
I-40
sg23
I-114
sg24
I87
sg8
g1145
sg25
I18
sg12
I8
sg26
F318.8265287813738
sg27
I3
sg28
I179
ssI180
(dp1198
g20
I180
sg21
I-120
sg22
I185
sg23
I-111
sg24
I89
sg8
g1145
sg25
I18
sg12
I9
sg26
F318.9849188936955
sg27
I2
sg28
I180
ssI158
(dp1199
g20
I-60
sg21
I360
sg22
I-69
sg23
I389
sg24
I23
sg8
g1145
sg25
I18
sg12
I6
sg26
F315.35198710279565
sg27
I3
sg28
I158
ssI182
(dp1200
g20
I180
sg21
I240
sg22
I199
sg23
I186
sg24
I41
sg8
g1145
sg25
I18
sg12
I9
sg26
F319.4097932122304
sg27
I0
sg28
I182
ssI183
(dp1201
g20
I180
sg21
I240
sg22
I197
sg23
I181
sg24
I41
sg8
g1145
sg25
I18
sg12
I9
sg26
F319.50145314486554
sg27
I0
sg28
I183
ssI184
(dp1202
g20
I180
sg21
I240
sg22
I198
sg23
I181
sg24
I41
sg8
g1145
sg25
I18
sg12
I9
sg26
F319.5847774957706
sg27
I0
sg28
I184
ssI185
(dp1203
g20
I60
sg21
I120
sg22
I80
sg23
I155
sg24
I56
sg8
g1145
sg25
I18
sg12
I9
sg26
F319.6764317376751
sg27
I1
sg28
I185
ssI186
(dp1204
g20
I60
sg21
I120
sg22
I79
sg23
I157
sg24
I56
sg8
g1145
sg25
I18
sg12
I9
sg26
F319.843185885381
sg27
I1
sg28
I186
ssI159
(dp1205
g20
I-60
sg21
I360
sg22
I-71
sg23
I393
sg24
I23
sg8
g1145
sg25
I18
sg12
I6
sg26
F315.52705105656787
sg27
I3
sg28
I159
ssI188
(dp1206
g20
I300
sg21
I240
sg22
I286
sg23
I259
sg24
I42
sg8
g1145
sg25
I18
sg12
I9
sg26
F320.1013793662137
sg27
I1
sg28
I188
ssI189
(dp1207
g20
I300
sg21
I360
sg22
I264
sg23
I317
sg24
I26
sg8
g1145
sg25
I18
sg12
I9
sg26
F320.2681954424611
sg27
I0
sg28
I189
ssI190
(dp1208
g20
I180
sg21
I360
sg22
I201
sg23
I407
sg24
I25
sg8
g1145
sg25
I18
sg12
I9
sg26
F320.3596782929417
sg27
I0
sg28
I190
ssI181
(dp1209
g20
I180
sg21
I-120
sg22
I188
sg23
I-113
sg24
I89
sg8
g1145
sg25
I18
sg12
I9
sg26
F319.23497496413165
sg27
I3
sg28
I181
ssI192
(dp1210
g20
I180
sg21
I480
sg22
I178
sg23
I481
sg24
I9
sg8
g1145
sg25
I18
sg12
I10
sg26
F320.54316151566263
sg27
I2
sg28
I192
ssI160
(dp1211
g20
I-900
sg21
I0
sg22
I-845
sg23
I-1
sg24
I64
sg8
g1145
sg25
I18
sg12
I6
sg26
F315.69369708038766
sg27
I1
sg28
I160
ssI175
(dp1212
g20
I-180
sg21
I-360
sg22
I-197
sg23
I-332
sg24
I118
sg8
g1145
sg25
I18
sg12
I8
sg26
F318.0766825984815
sg27
I2
sg28
I175
ssI161
(dp1213
g20
I-900
sg21
I0
sg22
I-843
sg23
I-6
sg24
I64
sg8
g1145
sg25
I18
sg12
I6
sg26
F315.86878312758563
sg27
I1
sg28
I161
ssI163
(dp1214
g20
I-780
sg21
I-240
sg22
I-783
sg23
I-239
sg24
I97
sg8
g1145
sg25
I18
sg12
I6
sg26
F316.2103043068123
sg27
I1
sg28
I163
ssI95
(dp1215
g20
I-900
sg21
I480
sg22
I-874
sg23
I539
sg24
I0
sg8
g1145
sg25
I18
sg12
I4
sg26
F313.26071983059046
sg27
I1
sg28
I95
ssI98
(dp1216
g20
I-900
sg21
I480
sg22
I-872
sg23
I540
sg24
I0
sg8
g1145
sg25
I18
sg12
I4
sg26
F313.44381574886347
sg27
I1
sg28
I98
ssI187
(dp1217
g20
I180
sg21
I120
sg22
I137
sg23
I150
sg24
I57
sg8
g1145
sg25
I18
sg12
I9
sg26
F320.00992195664776
sg27
I0
sg28
I187
ssI108
(dp1218
g20
I-900
sg21
I480
sg22
I-872
sg23
I531
sg24
I0
sg8
g1145
sg25
I18
sg12
I4
sg26
F313.6938744972913
sg27
I1
sg28
I108
ssI109
(dp1219
g20
I-780
sg21
I240
sg22
I-760
sg23
I281
sg24
I33
sg8
g1145
sg25
I18
sg12
I5
sg26
F313.8605720724372
sg27
I2
sg28
I109
ssI154
(dp1220
g20
I-300
sg21
I360
sg22
I-265
sg23
I374
sg24
I21
sg8
g1145
sg25
I18
sg12
I5
sg26
F314.5770220338404
sg27
I1
sg28
I154
ssI169
(dp1221
g20
I-660
sg21
I-360
sg22
I-636
sg23
I-419
sg24
I114
sg8
g1145
sg25
I18
sg12
I6
sg26
F317.18519847595553
sg27
I0
sg28
I169
ssI153
(dp1222
g20
I-540
sg21
I480
sg22
I-540
sg23
I509
sg24
I3
sg8
g1145
sg25
I18
sg12
I5
sg26
F314.4688067608563
sg27
I0
sg28
I153
ssI191
(dp1223
g20
I180
sg21
I360
sg22
I200
sg23
I403
sg24
I25
sg8
g1145
sg25
I18
sg12
I9
sg26
F320.4596691208226
sg27
I0
sg28
I191
sssg80
I35
sg81
I1920
sg82
S'trial18.png'
p1224
sg84
VTrial 4->trial18.png
p1225
sg86
S'results\\P035\\trial_png\\trial18.png'
p1226
sg88
g89
sg234
I8
sg235
I16
sg236
(lp1227
I1
aI0
aI1
aI0
aI0
aI0
aI0
aI0
aI0
aI3
aI0
aI0
aI0
aI0
aI0
aI1
aI0
aI0
aI0
aI0
aI0
aI1
aI0
aI3
aI0
aI0
aI0
aI0
aI2
aI0
aI0
aI0
aI0
aI3
aI0
aI3
aI0
aI0
aI0
aI0
aI0
aI0
aI1
aI0
aI0
aI0
aI2
aI0
aI0
aI0
aI0
aI0
aI0
aI3
aI0
aI0
aI1
aI0
aI0
aI0
aI0
aI0
aI0
aI0
aI1
aI0
aI3
aI0
aI0
aI0
aI0
aI0
aI0
aI0
aI0
aI0
aI1
aI0
aI0
aI2
aI0
aI0
aI0
aI0
aI0
aI1
aI0
aI3
aI0
aI3
aI0
aI0
aI0
aI0
aI0
aI0
aI0
aI1
aI0
aI1
aI0
aI0
aI0
aI0
aI0
aI0
aI0
aI1
aI0
aI2
aI0
aI0
aI0
aI0
aI0
aI0
aI0
aI0
aI3
aI0
aI0
aI1
aI0
aI0
aI0
aI0
aI0
aI0
aI1
aI0
aI3
aI0
aI0
aI0
aI0
aI0
aI0
aI0
aI0
aI2
aI0
aI0
aI1
aI0
asg238
I9
sg239
I30
sg240
I1080
ssI19
(dp1228
g2
I19
sg3
g4
sg5
I2
sg6
g7
sg8
VTrial 1
p1229
sg10
g11
sg12
I10
sg13
g14
sg15
g16
sg17
(dp1230
I1
(dp1231
g20
I60
sg21
I0
sg22
I6
sg23
I10
sg24
I72
sg8
g1229
sg25
I19
sg12
I0
sg26
F324.1675729434537
sg27
I0
sg28
I1
ssI2
(dp1232
g20
I60
sg21
I0
sg22
I7
sg23
I11
sg24
I72
sg8
g1229
sg25
I19
sg12
I0
sg26
F324.25096056189614
sg27
I0
sg28
I2
ssI3
(dp1233
g20
I60
sg21
I0
sg22
I9
sg23
I8
sg24
I72
sg8
g1229
sg25
I19
sg12
I0
sg26
F324.3343260869133
sg27
I0
sg28
I3
ssI4
(dp1234
g20
I-60
sg21
I0
sg22
I-64
sg23
I7
sg24
I71
sg8
g1229
sg25
I19
sg12
I0
sg26
F324.4259083578095
sg27
I1
sg28
I4
ssI5
(dp1235
g20
I-60
sg21
I0
sg22
I-65
sg23
I3
sg24
I71
sg8
g1229
sg25
I19
sg12
I0
sg26
F324.584301148122
sg27
I1
sg28
I5
ssI6
(dp1236
g20
I-60
sg21
I0
sg22
I-70
sg23
I5
sg24
I71
sg8
g1229
sg25
I19
sg12
I0
sg26
F324.7425650601176
sg27
I1
sg28
I6
ssI7
(dp1237
g20
I180
sg21
I0
sg22
I150
sg23
I24
sg24
I73
sg8
g1229
sg25
I19
sg12
I1
sg26
F324.9092077364485
sg27
I2
sg28
I7
ssI8
(dp1238
g20
I180
sg21
I0
sg22
I145
sg23
I24
sg24
I73
sg8
g1229
sg25
I19
sg12
I1
sg26
F325.15918514089935
sg27
I3
sg28
I8
ssI9
(dp1239
g20
I180
sg21
I0
sg22
I147
sg23
I29
sg24
I73
sg8
g1229
sg25
I19
sg12
I1
sg26
F325.32581509677266
sg27
I3
sg28
I9
ssI10
(dp1240
g20
I420
sg21
I-120
sg22
I448
sg23
I-116
sg24
I91
sg8
g1229
sg25
I19
sg12
I2
sg26
F325.49261075333925
sg27
I2
sg28
I10
ssI11
(dp1241
g20
I420
sg21
I-120
sg22
I449
sg23
I-115
sg24
I91
sg8
g1229
sg25
I19
sg12
I2
sg26
F325.7425272334949
sg27
I3
sg28
I11
ssI12
(dp1242
g20
I180
sg21
I-360
sg22
I228
sg23
I-350
sg24
I121
sg8
g1229
sg25
I19
sg12
I2
sg26
F325.9091012863064
sg27
I1
sg28
I12
ssI13
(dp1243
g20
I180
sg21
I-360
sg22
I208
sg23
I-358
sg24
I121
sg8
g1229
sg25
I19
sg12
I2
sg26
F326.0757764332775
sg27
I1
sg28
I13
ssI14
(dp1244
g20
I180
sg21
I-360
sg22
I214
sg23
I-362
sg24
I121
sg8
g1229
sg25
I19
sg12
I2
sg26
F326.2341186765102
sg27
I1
sg28
I14
ssI15
(dp1245
g20
I420
sg21
I-360
sg22
I467
sg23
I-361
sg24
I123
sg8
g1229
sg25
I19
sg12
I2
sg26
F326.4008052049435
sg27
I1
sg28
I15
ssI16
(dp1246
g20
I420
sg21
I-360
sg22
I471
sg23
I-362
sg24
I123
sg8
g1229
sg25
I19
sg12
I2
sg26
F326.56746327972223
sg27
I1
sg28
I16
ssI17
(dp1247
g20
I420
sg21
I-360
sg22
I470
sg23
I-362
sg24
I123
sg8
g1229
sg25
I19
sg12
I2
sg26
F326.73406745993225
sg27
I1
sg28
I17
ssI18
(dp1248
g20
I660
sg21
I-360
sg22
I667
sg23
I-335
sg24
I125
sg8
g1229
sg25
I19
sg12
I3
sg26
F326.90076001384523
sg27
I2
sg28
I18
ssI19
(dp1249
g20
I660
sg21
I-360
sg22
I672
sg23
I-328
sg24
I125
sg8
g1229
sg25
I19
sg12
I3
sg26
F327.1507524819958
sg27
I3
sg28
I19
ssI20
(dp1250
g20
I660
sg21
I0
sg22
I698
sg23
I32
sg24
I77
sg8
g1229
sg25
I19
sg12
I3
sg26
F327.3172609240278
sg27
I1
sg28
I20
ssI21
(dp1251
g20
I660
sg21
I0
sg22
I686
sg23
I36
sg24
I77
sg8
g1229
sg25
I19
sg12
I3
sg26
F327.4839092910893
sg27
I1
sg28
I21
ssI22
(dp1252
g20
I660
sg21
I0
sg22
I686
sg23
I38
sg24
I77
sg8
g1229
sg25
I19
sg12
I3
sg26
F327.6588862101544
sg27
I1
sg28
I22
ssI23
(dp1253
g20
I660
sg21
I0
sg22
I684
sg23
I39
sg24
I77
sg8
g1229
sg25
I19
sg12
I3
sg26
F327.8255071278081
sg27
I1
sg28
I23
ssI24
(dp1254
g20
I540
sg21
I240
sg22
I565
sg23
I245
sg24
I44
sg8
g1229
sg25
I19
sg12
I4
sg26
F327.99231517008275
sg27
I2
sg28
I24
ssI25
(dp1255
g20
I540
sg21
I240
sg22
I562
sg23
I245
sg24
I44
sg8
g1229
sg25
I19
sg12
I4
sg26
F328.2421580054861
sg27
I3
sg28
I25
ssI26
(dp1256
g20
I780
sg21
I480
sg22
I805
sg23
I493
sg24
I14
sg8
g1229
sg25
I19
sg12
I5
sg26
F328.41727217158996
sg27
I2
sg28
I26
ssI27
(dp1257
g20
I780
sg21
I480
sg22
I803
sg23
I487
sg24
I14
sg8
g1229
sg25
I19
sg12
I5
sg26
F328.6672278173637
sg27
I3
sg28
I27
ssI28
(dp1258
g20
I900
sg21
I240
sg22
I903
sg23
I231
sg24
I47
sg8
g1229
sg25
I19
sg12
I5
sg26
F328.84210431176643
sg27
I1
sg28
I28
ssI29
(dp1259
g20
I900
sg21
I240
sg22
I901
sg23
I232
sg24
I47
sg8
g1229
sg25
I19
sg12
I5
sg26
F329.000449567739
sg27
I1
sg28
I29
ssI30
(dp1260
g20
I900
sg21
I240
sg22
I900
sg23
I227
sg24
I47
sg8
g1229
sg25
I19
sg12
I5
sg26
F329.1588172518859
sg27
I1
sg28
I30
ssI31
(dp1261
g20
I900
sg21
I-120
sg22
I916
sg23
I-104
sg24
I95
sg8
g1229
sg25
I19
sg12
I6
sg26
F329.3170262650665
sg27
I2
sg28
I31
ssI32
(dp1262
g20
I900
sg21
I-120
sg22
I915
sg23
I-105
sg24
I95
sg8
g1229
sg25
I19
sg12
I6
sg26
F329.5586660792942
sg27
I3
sg28
I32
ssI33
(dp1263
g20
I900
sg21
I-360
sg22
I906
sg23
I-376
sg24
I127
sg8
g1229
sg25
I19
sg12
I6
sg26
F329.7170300812036
sg27
I1
sg28
I33
ssI34
(dp1264
g20
I900
sg21
I-360
sg22
I906
sg23
I-370
sg24
I127
sg8
g1229
sg25
I19
sg12
I6
sg26
F329.8754081425659
sg27
I1
sg28
I34
ssI35
(dp1265
g20
I900
sg21
I-360
sg22
I909
sg23
I-369
sg24
I127
sg8
g1229
sg25
I19
sg12
I6
sg26
F330.0254241770367
sg27
I1
sg28
I35
ssI36
(dp1266
g20
I180
sg21
I360
sg22
I232
sg23
I366
sg24
I25
sg8
g1229
sg25
I19
sg12
I6
sg26
F330.18366030487596
sg27
I0
sg28
I36
ssI37
(dp1267
g20
I180
sg21
I480
sg22
I231
sg23
I463
sg24
I9
sg8
g1229
sg25
I19
sg12
I6
sg26
F330.25855099263117
sg27
I0
sg28
I37
ssI38
(dp1268
g20
I180
sg21
I480
sg22
I235
sg23
I467
sg24
I9
sg8
g1229
sg25
I19
sg12
I6
sg26
F330.3335816054155
sg27
I0
sg28
I38
ssI39
(dp1269
g20
I180
sg21
I480
sg22
I235
sg23
I471
sg24
I9
sg8
g1229
sg25
I19
sg12
I6
sg26
F330.40865004482293
sg27
I0
sg28
I39
ssI40
(dp1270
g20
I300
sg21
I480
sg22
I295
sg23
I486
sg24
I10
sg8
g1229
sg25
I19
sg12
I6
sg26
F330.48369170432034
sg27
I1
sg28
I40
ssI41
(dp1271
g20
I300
sg21
I480
sg22
I295
sg23
I487
sg24
I10
sg8
g1229
sg25
I19
sg12
I6
sg26
F330.6335962674166
sg27
I1
sg28
I41
ssI42
(dp1272
g20
I180
sg21
I360
sg22
I195
sg23
I330
sg24
I25
sg8
g1229
sg25
I19
sg12
I6
sg26
F330.7837478751817
sg27
I0
sg28
I42
ssI43
(dp1273
g20
I180
sg21
I240
sg22
I172
sg23
I258
sg24
I41
sg8
g1229
sg25
I19
sg12
I6
sg26
F330.8586713683262
sg27
I1
sg28
I43
ssI44
(dp1274
g20
I180
sg21
I240
sg22
I175
sg23
I257
sg24
I41
sg8
g1229
sg25
I19
sg12
I6
sg26
F331.00862647850226
sg27
I1
sg28
I44
ssI45
(dp1275
g20
I180
sg21
I240
sg22
I174
sg23
I257
sg24
I41
sg8
g1229
sg25
I19
sg12
I6
sg26
F331.15849254547766
sg27
I1
sg28
I45
ssI46
(dp1276
g20
I60
sg21
I480
sg22
I89
sg23
I466
sg24
I8
sg8
g1229
sg25
I19
sg12
I7
sg26
F331.30855075830686
sg27
I2
sg28
I46
ssI47
(dp1277
g20
I60
sg21
I480
sg22
I87
sg23
I464
sg24
I8
sg8
g1229
sg25
I19
sg12
I7
sg26
F331.54191189811354
sg27
I3
sg28
I47
ssI48
(dp1278
g20
I60
sg21
I480
sg22
I37
sg23
I462
sg24
I8
sg8
g1229
sg25
I19
sg12
I7
sg26
F331.69183922413276
sg27
I3
sg28
I48
ssI49
(dp1279
g20
I-60
sg21
I240
sg22
I-59
sg23
I250
sg24
I39
sg8
g1229
sg25
I19
sg12
I8
sg26
F331.84175684243473
sg27
I2
sg28
I49
ssI50
(dp1280
g20
I-60
sg21
I240
sg22
I-64
sg23
I250
sg24
I39
sg8
g1229
sg25
I19
sg12
I8
sg26
F332.0834632716883
sg27
I3
sg28
I50
ssI51
(dp1281
g20
I-180
sg21
I480
sg22
I-200
sg23
I511
sg24
I6
sg8
g1229
sg25
I19
sg12
I8
sg26
F332.25005573568797
sg27
I1
sg28
I51
ssI52
(dp1282
g20
I-180
sg21
I480
sg22
I-198
sg23
I495
sg24
I6
sg8
g1229
sg25
I19
sg12
I8
sg26
F332.40872938030634
sg27
I1
sg28
I52
ssI53
(dp1283
g20
I-180
sg21
I480
sg22
I-199
sg23
I499
sg24
I6
sg8
g1229
sg25
I19
sg12
I8
sg26
F332.57513572393145
sg27
I1
sg28
I53
ssI54
(dp1284
g20
I-180
sg21
I480
sg22
I-199
sg23
I509
sg24
I6
sg8
g1229
sg25
I19
sg12
I8
sg26
F332.73340733515124
sg27
I1
sg28
I54
ssI55
(dp1285
g20
I-300
sg21
I240
sg22
I-284
sg23
I291
sg24
I37
sg8
g1229
sg25
I19
sg12
I8
sg26
F332.89167593363163
sg27
I1
sg28
I55
ssI56
(dp1286
g20
I-300
sg21
I240
sg22
I-282
sg23
I290
sg24
I37
sg8
g1229
sg25
I19
sg12
I8
sg26
F333.05005064750503
sg27
I1
sg28
I56
ssI57
(dp1287
g20
I-420
sg21
I240
sg22
I-409
sg23
I182
sg24
I36
sg8
g1229
sg25
I19
sg12
I8
sg26
F333.20832058498036
sg27
I0
sg28
I57
ssI58
(dp1288
g20
I-420
sg21
I480
sg22
I-464
sg23
I518
sg24
I4
sg8
g1229
sg25
I19
sg12
I9
sg26
F333.2915876938282
sg27
I2
sg28
I58
ssI83
(dp1289
g20
I-420
sg21
I480
sg22
I-445
sg23
I531
sg24
I4
sg8
g1229
sg25
I19
sg12
I9
sg26
F333.7332222190239
sg27
I3
sg28
I83
ssI84
(dp1290
g20
I-540
sg21
I240
sg22
I-552
sg23
I241
sg24
I35
sg8
g1229
sg25
I19
sg12
I10
sg26
F333.8999144381878
sg27
I2
sg28
I84
sssg80
I35
sg81
I1920
sg82
S'trial19.png'
p1291
sg84
VTrial 1->trial19.png
p1292
sg86
S'results\\P035\\trial_png\\trial19.png'
p1293
sg88
g89
sg234
I9
sg235
I16
sg236
(lp1294
I2
aI0
aI1
aI0
aI3
aI0
aI1
aI0
aI3
aI0
aI1
aI0
aI0
aI0
aI3
aI0
aI0
aI0
aI0
aI0
aI0
aI0
aI0
aI0
aI0
aI0
aI0
aI0
aI0
aI0
aI0
aI0
aI0
aI1
aI0
aI3
aI0
aI1
aI0
aI3
aI0
aI1
aI0
aI0
aI3
aI0
aI0
aI1
aI0
aI0
aI0
aI0
aI0
aI0
aI0
aI0
aI0
aI0
aI0
aI0
aI0
aI0
aI0
aI0
aI0
aI2
aI0
aI0
aI0
aI0
aI0
aI1
aI0
aI3
aI0
aI0
aI0
aI1
aI0
aI0
aI0
aI0
aI0
aI0
aI1
aI0
aI0
aI0
aI0
aI0
aI0
aI3
aI0
aI0
aI0
aI3
aI0
aI0
aI0
aI0
aI0
aI0
aI0
aI2
aI0
aI0
aI0
aI0
aI0
aI0
aI0
aI0
aI0
aI2
aI0
aI1
aI0
aI2
aI0
aI0
aI0
aI1
aI0
aI1
aI0
aI3
aI0
aI1
aI0
aI0
aI0
aI0
aI0
aI0
aI0
aI1
aI0
aI0
aI0
aI0
aI0
aI0
aI0
aI0
asg238
I9
sg239
I30
sg240
I1080
ssI20
(dp1295
g2
I20
sg3
g4
sg5
I2
sg6
g7
sg8
VTrial 6
p1296
sg10
g11
sg12
I10
sg13
g14
sg15
g16
sg17
(dp1297
I1
(dp1298
g20
I-60
sg21
I0
sg22
I0
sg23
I6
sg24
I71
sg8
g1296
sg25
I20
sg12
I1
sg26
F338.0744839678723
sg27
I2
sg28
I1
ssI2
(dp1299
g20
I-60
sg21
I0
sg22
I-72
sg23
I14
sg24
I71
sg8
g1296
sg25
I20
sg12
I1
sg26
F338.3243468882083
sg27
I3
sg28
I2
ssI3
(dp1300
g20
I-60
sg21
I0
sg22
I-75
sg23
I27
sg24
I71
sg8
g1296
sg25
I20
sg12
I1
sg26
F338.4909437039428
sg27
I3
sg28
I3
ssI4
(dp1301
g20
I-60
sg21
I240
sg22
I-49
sg23
I252
sg24
I39
sg8
g1296
sg25
I20
sg12
I2
sg26
F338.649356913937
sg27
I2
sg28
I4
ssI5
(dp1302
g20
I-60
sg21
I240
sg22
I-52
sg23
I255
sg24
I39
sg8
g1296
sg25
I20
sg12
I2
sg26
F338.89099739766243
sg27
I3
sg28
I5
ssI6
(dp1303
g20
I-300
sg21
I240
sg22
I-299
sg23
I279
sg24
I37
sg8
g1296
sg25
I20
sg12
I2
sg26
F339.05768727358463
sg27
I1
sg28
I6
ssI7
(dp1304
g20
I-300
sg21
I240
sg22
I-332
sg23
I269
sg24
I37
sg8
g1296
sg25
I20
sg12
I2
sg26
F339.2325373228259
sg27
I1
sg28
I7
ssI8
(dp1305
g20
I-300
sg21
I240
sg22
I-330
sg23
I263
sg24
I37
sg8
g1296
sg25
I20
sg12
I2
sg26
F339.3908876000314
sg27
I1
sg28
I8
ssI73
(dp1306
g20
I-540
sg21
I480
sg22
I-495
sg23
I480
sg24
I3
sg8
g1296
sg25
I20
sg12
I2
sg26
F340.0824453003602
sg27
I0
sg28
I73
ssI74
(dp1307
g20
I-540
sg21
I240
sg22
I-583
sg23
I293
sg24
I35
sg8
g1296
sg25
I20
sg12
I2
sg26
F340.1741792124967
sg27
I1
sg28
I74
ssI75
(dp1308
g20
I-540
sg21
I240
sg22
I-583
sg23
I296
sg24
I35
sg8
g1296
sg25
I20
sg12
I2
sg26
F340.34075627804805
sg27
I1
sg28
I75
ssI76
(dp1309
g20
I-540
sg21
I240
sg22
I-589
sg23
I296
sg24
I35
sg8
g1296
sg25
I20
sg12
I2
sg26
F340.49905902091314
sg27
I1
sg28
I76
ssI77
(dp1310
g20
I-660
sg21
I240
sg22
I-672
sg23
I261
sg24
I34
sg8
g1296
sg25
I20
sg12
I3
sg26
F340.6740684106194
sg27
I2
sg28
I77
ssI78
(dp1311
g20
I-660
sg21
I240
sg22
I-673
sg23
I262
sg24
I34
sg8
g1296
sg25
I20
sg12
I3
sg26
F340.9240752729711
sg27
I3
sg28
I78
ssI79
(dp1312
g20
I-780
sg21
I480
sg22
I-803
sg23
I526
sg24
I1
sg8
g1296
sg25
I20
sg12
I4
sg26
F341.09076749213546
sg27
I2
sg28
I79
ssI80
(dp1313
g20
I-780
sg21
I480
sg22
I-804
sg23
I522
sg24
I1
sg8
g1296
sg25
I20
sg12
I4
sg26
F341.34069434950607
sg27
I3
sg28
I80
ssI81
(dp1314
g20
I-900
sg21
I240
sg22
I-898
sg23
I202
sg24
I32
sg8
g1296
sg25
I20
sg12
I4
sg26
F341.5074207130556
sg27
I1
sg28
I81
ssI82
(dp1315
g20
I-900
sg21
I240
sg22
I-895
sg23
I201
sg24
I32
sg8
g1296
sg25
I20
sg12
I4
sg26
F341.6656598536347
sg27
I1
sg28
I82
ssI83
(dp1316
g20
I-900
sg21
I0
sg22
I-880
sg23
I-6
sg24
I64
sg8
g1296
sg25
I20
sg12
I5
sg26
F341.83234571257026
sg27
I2
sg28
I83
ssI84
(dp1317
g20
I-900
sg21
I0
sg22
I-867
sg23
I-15
sg24
I64
sg8
g1296
sg25
I20
sg12
I5
sg26
F342.08235324441966
sg27
I3
sg28
I84
ssI85
(dp1318
g20
I-660
sg21
I-240
sg22
I-670
sg23
I-255
sg24
I98
sg8
g1296
sg25
I20
sg12
I5
sg26
F342.24056158810254
sg27
I1
sg28
I85
ssI86
(dp1319
g20
I-660
sg21
I-240
sg22
I-669
sg23
I-256
sg24
I98
sg8
g1296
sg25
I20
sg12
I5
sg26
F342.40717447178304
sg27
I1
sg28
I86
ssI87
(dp1320
g20
I-660
sg21
I-240
sg22
I-670
sg23
I-255
sg24
I98
sg8
g1296
sg25
I20
sg12
I5
sg26
F342.5737793214912
sg27
I1
sg28
I87
ssI88
(dp1321
g20
I-420
sg21
I-240
sg22
I-419
sg23
I-267
sg24
I100
sg8
g1296
sg25
I20
sg12
I6
sg26
F342.7404661846731
sg27
I2
sg28
I88
ssI89
(dp1322
g20
I-420
sg21
I-240
sg22
I-420
sg23
I-267
sg24
I100
sg8
g1296
sg25
I20
sg12
I6
sg26
F342.9905282805894
sg27
I3
sg28
I89
ssI90
(dp1323
g20
I-900
sg21
I-360
sg22
I-898
sg23
I-354
sg24
I112
sg8
g1296
sg25
I20
sg12
I6
sg26
F343.15726636034924
sg27
I1
sg28
I90
ssI91
(dp1324
g20
I-900
sg21
I-360
sg22
I-890
sg23
I-356
sg24
I112
sg8
g1296
sg25
I20
sg12
I6
sg26
F343.32375070046237
sg27
I1
sg28
I91
ssI92
(dp1325
g20
I-540
sg21
I-480
sg22
I-484
sg23
I-469
sg24
I131
sg8
g1296
sg25
I20
sg12
I7
sg26
F343.49054200529326
sg27
I2
sg28
I92
ssI93
(dp1326
g20
I-540
sg21
I-480
sg22
I-496
sg23
I-467
sg24
I131
sg8
g1296
sg25
I20
sg12
I7
sg26
F343.7322209851395
sg27
I3
sg28
I93
ssI94
(dp1327
g20
I-180
sg21
I-360
sg22
I-183
sg23
I-357
sg24
I118
sg8
g1296
sg25
I20
sg12
I8
sg26
F343.89876524530064
sg27
I2
sg28
I94
ssI95
(dp1328
g20
I-180
sg21
I-360
sg22
I-182
sg23
I-354
sg24
I118
sg8
g1296
sg25
I20
sg12
I8
sg26
F344.1488216504863
sg27
I3
sg28
I95
ssI96
(dp1329
g20
I-60
sg21
I-480
sg22
I-3
sg23
I-421
sg24
I135
sg8
g1296
sg25
I20
sg12
I8
sg26
F344.32365529703293
sg27
I1
sg28
I96
ssI97
(dp1330
g20
I60
sg21
I-360
sg22
I2
sg23
I-417
sg24
I120
sg8
g1296
sg25
I20
sg12
I8
sg26
F344.49027119345374
sg27
I0
sg28
I97
ssI98
(dp1331
g20
I-60
sg21
I0
sg22
I-13
sg23
I50
sg24
I71
sg8
g1296
sg25
I20
sg12
I8
sg26
F344.5819679484648
sg27
I3
sg28
I98
ssI99
(dp1332
g20
I-60
sg21
I0
sg22
I-16
sg23
I42
sg24
I71
sg8
g1296
sg25
I20
sg12
I8
sg26
F344.74861531128
sg27
I3
sg28
I99
ssI105
(dp1333
g20
I-180
sg21
I-480
sg22
I-236
sg23
I-480
sg24
I134
sg8
g1296
sg25
I20
sg12
I8
sg26
F344.95687062022944
sg27
I0
sg28
I105
ssI106
(dp1334
g20
I180
sg21
I-120
sg22
I202
sg23
I-79
sg24
I89
sg8
g1296
sg25
I20
sg12
I8
sg26
F345.04855666327694
sg27
I1
sg28
I106
ssI107
(dp1335
g20
I180
sg21
I-120
sg22
I197
sg23
I-93
sg24
I89
sg8
g1296
sg25
I20
sg12
I8
sg26
F345.223554671521
sg27
I1
sg28
I107
ssI108
(dp1336
g20
I180
sg21
I-120
sg22
I198
sg23
I-91
sg24
I89
sg8
g1296
sg25
I20
sg12
I8
sg26
F345.3902763485862
sg27
I1
sg28
I108
ssI109
(dp1337
g20
I420
sg21
I-120
sg22
I417
sg23
I-113
sg24
I91
sg8
g1296
sg25
I20
sg12
I9
sg26
F345.5651504997468
sg27
I2
sg28
I109
ssI110
(dp1338
g20
I420
sg21
I-120
sg22
I417
sg23
I-115
sg24
I91
sg8
g1296
sg25
I20
sg12
I9
sg26
F345.8152239771248
sg27
I3
sg28
I110
ssI111
(dp1339
g20
I420
sg21
I-360
sg22
I369
sg23
I-398
sg24
I123
sg8
g1296
sg25
I20
sg12
I9
sg26
F345.9817980299363
sg27
I1
sg28
I111
ssI112
(dp1340
g20
I420
sg21
I-360
sg22
I411
sg23
I-391
sg24
I123
sg8
g1296
sg25
I20
sg12
I9
sg26
F346.14840555763476
sg27
I1
sg28
I112
ssI113
(dp1341
g20
I420
sg21
I-360
sg22
I408
sg23
I-389
sg24
I123
sg8
g1296
sg25
I20
sg12
I9
sg26
F346.31525544351916
sg27
I1
sg28
I113
ssI114
(dp1342
g20
I300
sg21
I-480
sg22
I298
sg23
I-439
sg24
I138
sg8
g1296
sg25
I20
sg12
I10
sg26
F346.47336671002813
sg27
I2
sg28
I114
sssg80
I35
sg81
I1920
sg82
S'trial20.png'
p1343
sg84
VTrial 6->trial20.png
p1344
sg86
S'results\\P035\\trial_png\\trial20.png'
p1345
sg88
g89
sg234
I10
sg235
I16
sg236
(lp1346
I0
aI3
aI0
aI0
aI2
aI0
aI0
aI0
aI0
aI0
aI0
aI0
aI0
aI0
aI0
aI1
aI0
aI0
aI0
aI0
aI0
aI0
aI0
aI0
aI1
aI0
aI2
aI0
aI0
aI1
aI0
aI0
aI1
aI0
aI3
aI1
aI0
aI1
aI0
aI3
aI0
aI0
aI0
aI1
aI0
aI0
aI0
aI2
aI0
aI0
aI0
aI0
aI0
aI0
aI0
aI0
aI0
aI0
aI0
aI0
aI0
aI0
aI0
aI0
aI3
aI0
aI0
aI0
aI0
aI0
aI0
aI3
aI0
aI0
aI0
aI0
aI0
aI2
aI0
aI1
aI0
aI0
aI0
aI0
aI0
aI0
aI0
aI0
aI0
aI1
aI0
aI3
aI0
aI0
aI0
aI0
aI0
aI0
aI1
aI0
aI3
aI0
aI0
aI0
aI0
aI0
aI0
aI0
aI0
aI1
aI0
aI2
aI1
aI0
aI0
aI0
aI0
aI0
aI3
aI0
aI0
aI0
aI0
aI1
aI0
aI0
aI0
aI0
aI0
aI0
aI0
aI3
aI0
aI0
aI0
aI1
aI0
aI0
aI3
aI0
aI0
aI0
aI0
aI1
asg238
I9
sg239
I30
sg240
I1080
ss.