(dp0
I1
(dp1
S'trial_num_in_expt'
p2
I1
sS'blocking_type'
p3
S'pure'
p4
sS'number_of_blocks'
p5
I2
sS'trial_def_xlsx'
p6
S'2_battery_20_trials.xlsx'
p7
sS'trial_name'
p8
VTrial 2
p9
sS'contingency_mode'
p10
S'gaze'
p11
sS'fruit_tally'
p12
I10
sS'calibration_type'
p13
S'HV9'
p14
sS'results_directory'
p15
S'results\\P039'
p16
sS'samples'
p17
(dp18
I1
(dp19
S'tile_centre_x'
p20
I60
sS'tile_centre_y'
p21
I0
sS'psychopy_x'
p22
I1
sS'psychopy_y'
p23
I-8
sS'hit_tile'
p24
I72
sg8
g9
sS'trial_index'
p25
I1
sg12
I0
sS'sample_timestamp'
p26
F145.13150264249816
sS'hit_flag'
p27
I1
sS'sample_index'
p28
I1
ssI2
(dp29
g20
I-60
sg21
I0
sg22
I0
sg23
I-6
sg24
I71
sg8
g9
sg25
I1
sg12
I0
sg26
F145.34809247339763
sg27
I0
sg28
I2
ssI3
(dp30
g20
I60
sg21
I0
sg22
I49
sg23
I-3
sg24
I72
sg8
g9
sg25
I1
sg12
I0
sg26
F145.43155044447758
sg27
I1
sg28
I3
ssI4
(dp31
g20
I60
sg21
I0
sg22
I50
sg23
I-5
sg24
I72
sg8
g9
sg25
I1
sg12
I0
sg26
F145.58986069137427
sg27
I1
sg28
I4
ssI5
(dp32
g20
I60
sg21
I0
sg22
I46
sg23
I-5
sg24
I72
sg8
g9
sg25
I1
sg12
I0
sg26
F145.7481602263424
sg27
I1
sg28
I5
ssI6
(dp33
g20
I60
sg21
I0
sg22
I43
sg23
I-4
sg24
I72
sg8
g9
sg25
I1
sg12
I0
sg26
F145.9064888843659
sg27
I1
sg28
I6
ssI7
(dp34
g20
I60
sg21
I0
sg22
I44
sg23
I0
sg24
I72
sg8
g9
sg25
I1
sg12
I0
sg26
F146.07314204953946
sg27
I1
sg28
I7
ssI8
(dp35
g20
I60
sg21
I0
sg22
I44
sg23
I-7
sg24
I72
sg8
g9
sg25
I1
sg12
I0
sg26
F146.2314419192562
sg27
I1
sg28
I8
ssI9
(dp36
g20
I60
sg21
I0
sg22
I39
sg23
I-9
sg24
I72
sg8
g9
sg25
I1
sg12
I0
sg26
F146.3980924064481
sg27
I1
sg28
I9
ssI10
(dp37
g20
I60
sg21
I0
sg22
I37
sg23
I-8
sg24
I72
sg8
g9
sg25
I1
sg12
I0
sg26
F146.55640767456043
sg27
I1
sg28
I10
ssI11
(dp38
g20
I60
sg21
I0
sg22
I36
sg23
I-11
sg24
I72
sg8
g9
sg25
I1
sg12
I0
sg26
F146.72304778457237
sg27
I1
sg28
I11
ssI12
(dp39
g20
I60
sg21
I0
sg22
I36
sg23
I-11
sg24
I72
sg8
g9
sg25
I1
sg12
I0
sg26
F146.88133259063943
sg27
I1
sg28
I12
ssI13
(dp40
g20
I60
sg21
I0
sg22
I35
sg23
I-7
sg24
I72
sg8
g9
sg25
I1
sg12
I0
sg26
F147.04800918815636
sg27
I1
sg28
I13
ssI14
(dp41
g20
I60
sg21
I0
sg22
I32
sg23
I-7
sg24
I72
sg8
g9
sg25
I1
sg12
I0
sg26
F147.20620963778947
sg27
I1
sg28
I14
ssI15
(dp42
g20
I60
sg21
I0
sg22
I36
sg23
I-4
sg24
I72
sg8
g9
sg25
I1
sg12
I0
sg26
F147.37294247292903
sg27
I1
sg28
I15
ssI16
(dp43
g20
I60
sg21
I0
sg22
I39
sg23
I-3
sg24
I72
sg8
g9
sg25
I1
sg12
I0
sg26
F147.5396053457871
sg27
I1
sg28
I16
ssI17
(dp44
g20
I60
sg21
I0
sg22
I43
sg23
I0
sg24
I72
sg8
g9
sg25
I1
sg12
I0
sg26
F147.6979343385583
sg27
I1
sg28
I17
ssI18
(dp45
g20
I60
sg21
I0
sg22
I47
sg23
I1
sg24
I72
sg8
g9
sg25
I1
sg12
I0
sg26
F147.86453160085694
sg27
I1
sg28
I18
ssI19
(dp46
g20
I60
sg21
I0
sg22
I47
sg23
I-2
sg24
I72
sg8
g9
sg25
I1
sg12
I0
sg26
F148.03120284240958
sg27
I1
sg28
I19
ssI20
(dp47
g20
I60
sg21
I0
sg22
I49
sg23
I1
sg24
I72
sg8
g9
sg25
I1
sg12
I0
sg26
F148.19789349933217
sg27
I1
sg28
I20
ssI21
(dp48
g20
I60
sg21
I0
sg22
I49
sg23
I7
sg24
I72
sg8
g9
sg25
I1
sg12
I0
sg26
F148.36454398652404
sg27
I1
sg28
I21
ssI22
(dp49
g20
I60
sg21
I0
sg22
I48
sg23
I5
sg24
I72
sg8
g9
sg25
I1
sg12
I0
sg26
F148.52282678410484
sg27
I1
sg28
I22
ssI23
(dp50
g20
I60
sg21
I0
sg22
I51
sg23
I4
sg24
I72
sg8
g9
sg25
I1
sg12
I0
sg26
F148.68949099595466
sg27
I1
sg28
I23
ssI24
(dp51
g20
I180
sg21
I0
sg22
I157
sg23
I9
sg24
I73
sg8
g9
sg25
I1
sg12
I1
sg26
F148.85607453359535
sg27
I2
sg28
I24
ssI25
(dp52
g20
I180
sg21
I0
sg22
I155
sg23
I7
sg24
I73
sg8
g9
sg25
I1
sg12
I1
sg26
F149.1310430338317
sg27
I3
sg28
I25
ssI26
(dp53
g20
I180
sg21
I0
sg22
I154
sg23
I7
sg24
I73
sg8
g9
sg25
I1
sg12
I1
sg26
F149.28941587855843
sg27
I3
sg28
I26
ssI27
(dp54
g20
I180
sg21
I0
sg22
I167
sg23
I3
sg24
I73
sg8
g9
sg25
I1
sg12
I1
sg26
F149.44770202361724
sg27
I3
sg28
I27
ssI28
(dp55
g20
I180
sg21
I0
sg22
I166
sg23
I7
sg24
I73
sg8
g9
sg25
I1
sg12
I1
sg26
F149.61428656550106
sg27
I3
sg28
I28
ssI29
(dp56
g20
I180
sg21
I0
sg22
I167
sg23
I5
sg24
I73
sg8
g9
sg25
I1
sg12
I1
sg26
F149.7810247566049
sg27
I3
sg28
I29
ssI30
(dp57
g20
I180
sg21
I0
sg22
I175
sg23
I5
sg24
I73
sg8
g9
sg25
I1
sg12
I1
sg26
F149.9476698878325
sg27
I3
sg28
I30
ssI31
(dp58
g20
I300
sg21
I240
sg22
I280
sg23
I224
sg24
I42
sg8
g9
sg25
I1
sg12
I1
sg26
F150.10605980469427
sg27
I1
sg28
I31
ssI32
(dp59
g20
I300
sg21
I240
sg22
I286
sg23
I230
sg24
I42
sg8
g9
sg25
I1
sg12
I1
sg26
F150.27268183832712
sg27
I1
sg28
I32
ssI33
(dp60
g20
I300
sg21
I240
sg22
I304
sg23
I234
sg24
I42
sg8
g9
sg25
I1
sg12
I1
sg26
F150.43098974198983
sg27
I1
sg28
I33
ssI34
(dp61
g20
I300
sg21
I240
sg22
I306
sg23
I239
sg24
I42
sg8
g9
sg25
I1
sg12
I1
sg26
F150.59751168604362
sg27
I1
sg28
I34
ssI35
(dp62
g20
I300
sg21
I240
sg22
I308
sg23
I244
sg24
I42
sg8
g9
sg25
I1
sg12
I1
sg26
F150.75582293718344
sg27
I1
sg28
I35
ssI36
(dp63
g20
I300
sg21
I240
sg22
I309
sg23
I246
sg24
I42
sg8
g9
sg25
I1
sg12
I1
sg26
F150.91421988374896
sg27
I1
sg28
I36
ssI37
(dp64
g20
I300
sg21
I240
sg22
I306
sg23
I244
sg24
I42
sg8
g9
sg25
I1
sg12
I1
sg26
F151.08084995132776
sg27
I1
sg28
I37
ssI38
(dp65
g20
I180
sg21
I0
sg22
I193
sg23
I34
sg24
I73
sg8
g9
sg25
I1
sg12
I1
sg26
F151.24744855261724
sg27
I3
sg28
I38
ssI39
(dp66
g20
I180
sg21
I0
sg22
I182
sg23
I39
sg24
I73
sg8
g9
sg25
I1
sg12
I1
sg26
F151.43076613049016
sg27
I3
sg28
I39
ssI40
(dp67
g20
I180
sg21
I0
sg22
I183
sg23
I39
sg24
I73
sg8
g9
sg25
I1
sg12
I1
sg26
F151.58906700444913
sg27
I3
sg28
I40
ssI41
(dp68
g20
I180
sg21
I0
sg22
I170
sg23
I13
sg24
I73
sg8
g9
sg25
I1
sg12
I1
sg26
F151.75572251285757
sg27
I3
sg28
I41
ssI42
(dp69
g20
I180
sg21
I0
sg22
I176
sg23
I14
sg24
I73
sg8
g9
sg25
I1
sg12
I1
sg26
F151.9224332546455
sg27
I3
sg28
I42
ssI43
(dp70
g20
I180
sg21
I0
sg22
I178
sg23
I15
sg24
I73
sg8
g9
sg25
I1
sg12
I1
sg26
F152.08068994190126
sg27
I3
sg28
I43
ssI44
(dp71
g20
I180
sg21
I0
sg22
I180
sg23
I17
sg24
I73
sg8
g9
sg25
I1
sg12
I1
sg26
F152.2474291372473
sg27
I3
sg28
I44
ssI45
(dp72
g20
I180
sg21
I0
sg22
I177
sg23
I20
sg24
I73
sg8
g9
sg25
I1
sg12
I1
sg26
F152.40568214227824
sg27
I3
sg28
I45
ssI46
(dp73
g20
I180
sg21
I0
sg22
I215
sg23
I37
sg24
I73
sg8
g9
sg25
I1
sg12
I1
sg26
F152.56396929158018
sg27
I3
sg28
I46
ssI47
(dp74
g20
I300
sg21
I240
sg22
I264
sg23
I249
sg24
I42
sg8
g9
sg25
I1
sg12
I1
sg26
F152.72234447954088
sg27
I1
sg28
I47
ssI48
(dp75
g20
I300
sg21
I240
sg22
I267
sg23
I250
sg24
I42
sg8
g9
sg25
I1
sg12
I1
sg26
F152.88898592854366
sg27
I1
sg28
I48
ssI49
(dp76
g20
I300
sg21
I240
sg22
I271
sg23
I255
sg24
I42
sg8
g9
sg25
I1
sg12
I1
sg26
F153.05560427995078
sg27
I1
sg28
I49
ssI50
(dp77
g20
I300
sg21
I240
sg22
I304
sg23
I259
sg24
I42
sg8
g9
sg25
I1
sg12
I1
sg26
F153.21388674278387
sg27
I1
sg28
I50
ssI51
(dp78
g20
I300
sg21
I240
sg22
I303
sg23
I256
sg24
I42
sg8
g9
sg25
I1
sg12
I1
sg26
F153.37222544323959
sg27
I1
sg28
I51
ssI52
(dp79
g20
I420
sg21
I240
sg22
I363
sg23
I241
sg24
I43
sg8
g9
sg25
I1
sg12
I1
sg26
F153.53052531295543
sg27
I0
sg28
I52
ssI53
(dp80
g20
I300
sg21
I240
sg22
I303
sg23
I241
sg24
I42
sg8
g9
sg25
I1
sg12
I1
sg26
F153.6138363297723
sg27
I1
sg28
I53
ssI54
(dp81
g20
I300
sg21
I240
sg22
I303
sg23
I240
sg24
I42
sg8
g9
sg25
I1
sg12
I1
sg26
F153.77217201749772
sg27
I1
sg28
I54
ssI55
(dp82
g20
I300
sg21
I240
sg22
I297
sg23
I244
sg24
I42
sg8
g9
sg25
I1
sg12
I1
sg26
F153.9388502887532
sg27
I1
sg28
I55
ssI56
(dp83
g20
I300
sg21
I240
sg22
I297
sg23
I247
sg24
I42
sg8
g9
sg25
I1
sg12
I1
sg26
F154.09722279873222
sg27
I1
sg28
I56
ssI57
(dp84
g20
I540
sg21
I240
sg22
I520
sg23
I256
sg24
I44
sg8
g9
sg25
I1
sg12
I2
sg26
F154.26380700586833
sg27
I2
sg28
I57
ssI58
(dp85
g20
I540
sg21
I240
sg22
I520
sg23
I252
sg24
I44
sg8
g9
sg25
I1
sg12
I2
sg26
F154.50542057038365
sg27
I3
sg28
I58
ssI59
(dp86
g20
I540
sg21
I240
sg22
I527
sg23
I246
sg24
I44
sg8
g9
sg25
I1
sg12
I2
sg26
F154.66383860605674
sg27
I3
sg28
I59
ssI60
(dp87
g20
I540
sg21
I240
sg22
I528
sg23
I242
sg24
I44
sg8
g9
sg25
I1
sg12
I2
sg26
F154.82215521316084
sg27
I3
sg28
I60
ssI61
(dp88
g20
I540
sg21
I240
sg22
I529
sg23
I246
sg24
I44
sg8
g9
sg25
I1
sg12
I2
sg26
F154.98039248504665
sg27
I3
sg28
I61
ssI62
(dp89
g20
I780
sg21
I480
sg22
I765
sg23
I456
sg24
I14
sg8
g9
sg25
I1
sg12
I3
sg26
F155.13877604170102
sg27
I2
sg28
I62
ssI63
(dp90
g20
I780
sg21
I480
sg22
I754
sg23
I486
sg24
I14
sg8
g9
sg25
I1
sg12
I3
sg26
F155.38037152983725
sg27
I3
sg28
I63
ssI64
(dp91
g20
I780
sg21
I480
sg22
I754
sg23
I487
sg24
I14
sg8
g9
sg25
I1
sg12
I3
sg26
F155.54694703353198
sg27
I3
sg28
I64
ssI65
(dp92
g20
I780
sg21
I480
sg22
I752
sg23
I487
sg24
I14
sg8
g9
sg25
I1
sg12
I3
sg26
F155.7136510803648
sg27
I3
sg28
I65
ssI66
(dp93
g20
I780
sg21
I480
sg22
I758
sg23
I486
sg24
I14
sg8
g9
sg25
I1
sg12
I3
sg26
F155.87194392037782
sg27
I3
sg28
I66
ssI67
(dp94
g20
I660
sg21
I0
sg22
I656
sg23
I29
sg24
I77
sg8
g9
sg25
I1
sg12
I3
sg26
F156.03019324318302
sg27
I1
sg28
I67
ssI68
(dp95
g20
I660
sg21
I0
sg22
I653
sg23
I7
sg24
I77
sg8
g9
sg25
I1
sg12
I3
sg26
F156.18868559285784
sg27
I1
sg28
I68
ssI69
(dp96
g20
I660
sg21
I0
sg22
I651
sg23
I11
sg24
I77
sg8
g9
sg25
I1
sg12
I3
sg26
F156.36353304830664
sg27
I1
sg28
I69
ssI70
(dp97
g20
I660
sg21
I0
sg22
I652
sg23
I8
sg24
I77
sg8
g9
sg25
I1
sg12
I3
sg26
F156.5219283211327
sg27
I1
sg28
I70
ssI71
(dp98
g20
I660
sg21
I0
sg22
I673
sg23
I16
sg24
I77
sg8
g9
sg25
I1
sg12
I3
sg26
F156.68846566358388
sg27
I1
sg28
I71
ssI72
(dp99
g20
I900
sg21
I120
sg22
I871
sg23
I139
sg24
I63
sg8
g9
sg25
I1
sg12
I3
sg26
F156.84688671198728
sg27
I1
sg28
I72
ssI73
(dp100
g20
I900
sg21
I120
sg22
I874
sg23
I136
sg24
I63
sg8
g9
sg25
I1
sg12
I3
sg26
F157.01342438918527
sg27
I1
sg28
I73
ssI74
(dp101
g20
I900
sg21
I120
sg22
I874
sg23
I135
sg24
I63
sg8
g9
sg25
I1
sg12
I3
sg26
F157.1718096195791
sg27
I1
sg28
I74
ssI75
(dp102
g20
I900
sg21
I120
sg22
I873
sg23
I131
sg24
I63
sg8
g9
sg25
I1
sg12
I3
sg26
F157.33006396360088
sg27
I1
sg28
I75
ssI76
(dp103
g20
I900
sg21
I-120
sg22
I874
sg23
I-75
sg24
I95
sg8
g9
sg25
I1
sg12
I4
sg26
F157.48845990592235
sg27
I2
sg28
I76
ssI77
(dp104
g20
I900
sg21
I-120
sg22
I876
sg23
I-73
sg24
I95
sg8
g9
sg25
I1
sg12
I4
sg26
F157.7384585669315
sg27
I3
sg28
I77
ssI78
(dp105
g20
I900
sg21
I-120
sg22
I881
sg23
I-121
sg24
I95
sg8
g9
sg25
I1
sg12
I4
sg26
F157.89672462712406
sg27
I3
sg28
I78
ssI79
(dp106
g20
I900
sg21
I-120
sg22
I883
sg23
I-121
sg24
I95
sg8
g9
sg25
I1
sg12
I4
sg26
F158.05500374248004
sg27
I3
sg28
I79
ssI80
(dp107
g20
I900
sg21
I-360
sg22
I871
sg23
I-355
sg24
I127
sg8
g9
sg25
I1
sg12
I4
sg26
F158.2132915612765
sg27
I1
sg28
I80
ssI81
(dp108
g20
I900
sg21
I-360
sg22
I869
sg23
I-358
sg24
I127
sg8
g9
sg25
I1
sg12
I4
sg26
F158.37166741873352
sg27
I1
sg28
I81
ssI82
(dp109
g20
I900
sg21
I-360
sg22
I868
sg23
I-366
sg24
I127
sg8
g9
sg25
I1
sg12
I4
sg26
F158.52997063592647
sg27
I1
sg28
I82
ssI83
(dp110
g20
I780
sg21
I-360
sg22
I777
sg23
I-364
sg24
I126
sg8
g9
sg25
I1
sg12
I4
sg26
F158.68829360323798
sg27
I0
sg28
I83
ssI84
(dp111
g20
I660
sg21
I-360
sg22
I637
sg23
I-356
sg24
I125
sg8
g9
sg25
I1
sg12
I5
sg26
F158.77148511510586
sg27
I2
sg28
I84
ssI85
(dp112
g20
I660
sg21
I-360
sg22
I635
sg23
I-360
sg24
I125
sg8
g9
sg25
I1
sg12
I5
sg26
F159.01319374798277
sg27
I3
sg28
I85
ssI86
(dp113
g20
I660
sg21
I-360
sg22
I650
sg23
I-361
sg24
I125
sg8
g9
sg25
I1
sg12
I5
sg26
F159.17165061439573
sg27
I3
sg28
I86
ssI87
(dp114
g20
I660
sg21
I-360
sg22
I654
sg23
I-365
sg24
I125
sg8
g9
sg25
I1
sg12
I5
sg26
F159.329775745784
sg27
I3
sg28
I87
ssI88
(dp115
g20
I540
sg21
I-480
sg22
I542
sg23
I-449
sg24
I140
sg8
g9
sg25
I1
sg12
I5
sg26
F159.48818005680005
sg27
I1
sg28
I88
ssI89
(dp116
g20
I540
sg21
I-480
sg22
I538
sg23
I-449
sg24
I140
sg8
g9
sg25
I1
sg12
I5
sg26
F159.6630633302575
sg27
I1
sg28
I89
ssI90
(dp117
g20
I540
sg21
I-480
sg22
I532
sg23
I-456
sg24
I140
sg8
g9
sg25
I1
sg12
I5
sg26
F159.82154095103124
sg27
I1
sg28
I90
ssI91
(dp118
g20
I420
sg21
I-120
sg22
I436
sg23
I-119
sg24
I91
sg8
g9
sg25
I1
sg12
I6
sg26
F159.97970424366395
sg27
I2
sg28
I91
ssI92
(dp119
g20
I420
sg21
I-120
sg22
I429
sg23
I-116
sg24
I91
sg8
g9
sg25
I1
sg12
I6
sg26
F160.22151698309244
sg27
I3
sg28
I92
ssI93
(dp120
g20
I420
sg21
I-120
sg22
I425
sg23
I-112
sg24
I91
sg8
g9
sg25
I1
sg12
I6
sg26
F160.3880683849493
sg27
I3
sg28
I93
ssI94
(dp121
g20
I180
sg21
I-480
sg22
I153
sg23
I-441
sg24
I137
sg8
g9
sg25
I1
sg12
I6
sg26
F160.55476439783524
sg27
I1
sg28
I94
ssI95
(dp122
g20
I180
sg21
I-480
sg22
I155
sg23
I-445
sg24
I137
sg8
g9
sg25
I1
sg12
I6
sg26
F160.72132718111607
sg27
I1
sg28
I95
ssI96
(dp123
g20
I180
sg21
I-480
sg22
I156
sg23
I-444
sg24
I137
sg8
g9
sg25
I1
sg12
I6
sg26
F160.87970203432906
sg27
I1
sg28
I96
ssI97
(dp124
g20
I180
sg21
I-480
sg22
I158
sg23
I-448
sg24
I137
sg8
g9
sg25
I1
sg12
I6
sg26
F161.03793227651204
sg27
I1
sg28
I97
ssI98
(dp125
g20
I60
sg21
I-360
sg22
I103
sg23
I-415
sg24
I120
sg8
g9
sg25
I1
sg12
I6
sg26
F161.2045546448926
sg27
I0
sg28
I98
ssI99
(dp126
g20
I-60
sg21
I-240
sg22
I-78
sg23
I-236
sg24
I103
sg8
g9
sg25
I1
sg12
I7
sg26
F161.28791319588981
sg27
I2
sg28
I99
ssI100
(dp127
g20
I-60
sg21
I-240
sg22
I-78
sg23
I-234
sg24
I103
sg8
g9
sg25
I1
sg12
I7
sg26
F161.52953747233278
sg27
I3
sg28
I100
ssI101
(dp128
g20
I-60
sg21
I-240
sg22
I-71
sg23
I-235
sg24
I103
sg8
g9
sg25
I1
sg12
I7
sg26
F161.69625290058866
sg27
I3
sg28
I101
ssI102
(dp129
g20
I-300
sg21
I-360
sg22
I-305
sg23
I-336
sg24
I117
sg8
g9
sg25
I1
sg12
I8
sg26
F161.86281066265292
sg27
I2
sg28
I102
ssI103
(dp130
g20
I-300
sg21
I-360
sg22
I-301
sg23
I-335
sg24
I117
sg8
g9
sg25
I1
sg12
I8
sg26
F162.10448649024966
sg27
I3
sg28
I103
ssI104
(dp131
g20
I-420
sg21
I-360
sg22
I-376
sg23
I-412
sg24
I116
sg8
g9
sg25
I1
sg12
I8
sg26
F162.28788072535826
sg27
I0
sg28
I104
ssI105
(dp132
g20
I-420
sg21
I-480
sg22
I-399
sg23
I-450
sg24
I132
sg8
g9
sg25
I1
sg12
I8
sg26
F162.37944394381066
sg27
I1
sg28
I105
ssI106
(dp133
g20
I-420
sg21
I-480
sg22
I-397
sg23
I-453
sg24
I132
sg8
g9
sg25
I1
sg12
I8
sg26
F162.53780674610425
sg27
I1
sg28
I106
ssI107
(dp134
g20
I-420
sg21
I-480
sg22
I-396
sg23
I-449
sg24
I132
sg8
g9
sg25
I1
sg12
I8
sg26
F162.6961899680109
sg27
I1
sg28
I107
ssI108
(dp135
g20
I-540
sg21
I-240
sg22
I-533
sg23
I-241
sg24
I99
sg8
g9
sg25
I1
sg12
I8
sg26
F162.8543616293373
sg27
I1
sg28
I108
ssI109
(dp136
g20
I-540
sg21
I-240
sg22
I-535
sg23
I-245
sg24
I99
sg8
g9
sg25
I1
sg12
I8
sg26
F163.01279908038123
sg27
I1
sg28
I109
ssI110
(dp137
g20
I-540
sg21
I-240
sg22
I-547
sg23
I-242
sg24
I99
sg8
g9
sg25
I1
sg12
I8
sg26
F163.1711675733868
sg27
I1
sg28
I110
ssI111
(dp138
g20
I-540
sg21
I-240
sg22
I-551
sg23
I-235
sg24
I99
sg8
g9
sg25
I1
sg12
I8
sg26
F163.3293553026051
sg27
I1
sg28
I111
ssI112
(dp139
g20
I-780
sg21
I-360
sg22
I-780
sg23
I-348
sg24
I113
sg8
g9
sg25
I1
sg12
I9
sg26
F163.49607541732985
sg27
I2
sg28
I112
ssI113
(dp140
g20
I-780
sg21
I-360
sg22
I-773
sg23
I-348
sg24
I113
sg8
g9
sg25
I1
sg12
I9
sg26
F163.76269564332506
sg27
I3
sg28
I113
ssI114
(dp141
g20
I-900
sg21
I-360
sg22
I-876
sg23
I-408
sg24
I112
sg8
g9
sg25
I1
sg12
I9
sg26
F163.9292624435784
sg27
I0
sg28
I114
ssI115
(dp142
g20
I-900
sg21
I-360
sg22
I-875
sg23
I-411
sg24
I112
sg8
g9
sg25
I1
sg12
I9
sg26
F164.02090332350963
sg27
I0
sg28
I115
ssI116
(dp143
g20
I-900
sg21
I-360
sg22
I-875
sg23
I-416
sg24
I112
sg8
g9
sg25
I1
sg12
I9
sg26
F164.1125582628465
sg27
I0
sg28
I116
ssI117
(dp144
g20
I-900
sg21
I-360
sg22
I-875
sg23
I-415
sg24
I112
sg8
g9
sg25
I1
sg12
I9
sg26
F164.2042476812021
sg27
I0
sg28
I117
ssI118
(dp145
g20
I-900
sg21
I-360
sg22
I-874
sg23
I-412
sg24
I112
sg8
g9
sg25
I1
sg12
I9
sg26
F164.29599166344178
sg27
I0
sg28
I118
ssI119
(dp146
g20
I-900
sg21
I-480
sg22
I-889
sg23
I-470
sg24
I128
sg8
g9
sg25
I1
sg12
I9
sg26
F164.40421494287148
sg27
I1
sg28
I119
ssI120
(dp147
g20
I-900
sg21
I-480
sg22
I-881
sg23
I-464
sg24
I128
sg8
g9
sg25
I1
sg12
I9
sg26
F164.5709464390202
sg27
I1
sg28
I120
ssI121
(dp148
g20
I-900
sg21
I-480
sg22
I-887
sg23
I-465
sg24
I128
sg8
g9
sg25
I1
sg12
I9
sg26
F164.73755039627395
sg27
I1
sg28
I121
ssI122
(dp149
g20
I-900
sg21
I-480
sg22
I-891
sg23
I-468
sg24
I128
sg8
g9
sg25
I1
sg12
I9
sg26
F164.9124611190482
sg27
I1
sg28
I122
ssI123
(dp150
g20
I-780
sg21
I0
sg22
I-789
sg23
I-12
sg24
I65
sg8
g9
sg25
I1
sg12
I10
sg26
F165.08752783427553
sg27
I2
sg28
I123
sssS'participant_number'
p151
I39
sS'screen_width'
p152
I1920
sS'bg_name'
p153
S'trial01.png'
p154
sS'mapping'
p155
VTrial 2->trial01.png
p156
sS'bg_path'
p157
S'results\\P039\\trial_png\\trial01.png'
p158
sS'tile_centres'
p159
(lp160
(F-900.0
F480.0
tp161
a(F-780.0
F480.0
tp162
a(F-660.0
F480.0
tp163
a(F-540.0
F480.0
tp164
a(F-420.0
F480.0
tp165
a(F-300.0
F480.0
tp166
a(F-180.0
F480.0
tp167
a(F-60.0
F480.0
tp168
a(F60.0
F480.0
tp169
a(F180.0
F480.0
tp170
a(F300.0
F480.0
tp171
a(F420.0
F480.0
tp172
a(F540.0
F480.0
tp173
a(F660.0
F480.0
tp174
a(F780.0
F480.0
tp175
a(F900.0
F480.0
tp176
a(F-900.0
F360.0
tp177
a(F-780.0
F360.0
tp178
a(F-660.0
F360.0
tp179
a(F-540.0
F360.0
tp180
a(F-420.0
F360.0
tp181
a(F-300.0
F360.0
tp182
a(F-180.0
F360.0
tp183
a(F-60.0
F360.0
tp184
a(F60.0
F360.0
tp185
a(F180.0
F360.0
tp186
a(F300.0
F360.0
tp187
a(F420.0
F360.0
tp188
a(F540.0
F360.0
tp189
a(F660.0
F360.0
tp190
a(F780.0
F360.0
tp191
a(F900.0
F360.0
tp192
a(F-900.0
F240.0
tp193
a(F-780.0
F240.0
tp194
a(F-660.0
F240.0
tp195
a(F-540.0
F240.0
tp196
a(F-420.0
F240.0
tp197
a(F-300.0
F240.0
tp198
a(F-180.0
F240.0
tp199
a(F-60.0
F240.0
tp200
a(F60.0
F240.0
tp201
a(F180.0
F240.0
tp202
a(F300.0
F240.0
tp203
a(F420.0
F240.0
tp204
a(F540.0
F240.0
tp205
a(F660.0
F240.0
tp206
a(F780.0
F240.0
tp207
a(F900.0
F240.0
tp208
a(F-900.0
F120.0
tp209
a(F-780.0
F120.0
tp210
a(F-660.0
F120.0
tp211
a(F-540.0
F120.0
tp212
a(F-420.0
F120.0
tp213
a(F-300.0
F120.0
tp214
a(F-180.0
F120.0
tp215
a(F-60.0
F120.0
tp216
a(F60.0
F120.0
tp217
a(F180.0
F120.0
tp218
a(F300.0
F120.0
tp219
a(F420.0
F120.0
tp220
a(F540.0
F120.0
tp221
a(F660.0
F120.0
tp222
a(F780.0
F120.0
tp223
a(F900.0
F120.0
tp224
a(F-900.0
F-0.0
tp225
a(F-780.0
F-0.0
tp226
a(F-660.0
F-0.0
tp227
a(F-540.0
F-0.0
tp228
a(F-420.0
F-0.0
tp229
a(F-300.0
F-0.0
tp230
a(F-180.0
F-0.0
tp231
a(F-60.0
F-0.0
tp232
a(F60.0
F-0.0
tp233
a(F180.0
F-0.0
tp234
a(F300.0
F-0.0
tp235
a(F420.0
F-0.0
tp236
a(F540.0
F-0.0
tp237
a(F660.0
F-0.0
tp238
a(F780.0
F-0.0
tp239
a(F900.0
F-0.0
tp240
a(F-900.0
F-120.0
tp241
a(F-780.0
F-120.0
tp242
a(F-660.0
F-120.0
tp243
a(F-540.0
F-120.0
tp244
a(F-420.0
F-120.0
tp245
a(F-300.0
F-120.0
tp246
a(F-180.0
F-120.0
tp247
a(F-60.0
F-120.0
tp248
a(F60.0
F-120.0
tp249
a(F180.0
F-120.0
tp250
a(F300.0
F-120.0
tp251
a(F420.0
F-120.0
tp252
a(F540.0
F-120.0
tp253
a(F660.0
F-120.0
tp254
a(F780.0
F-120.0
tp255
a(F900.0
F-120.0
tp256
a(F-900.0
F-240.0
tp257
a(F-780.0
F-240.0
tp258
a(F-660.0
F-240.0
tp259
a(F-540.0
F-240.0
tp260
a(F-420.0
F-240.0
tp261
a(F-300.0
F-240.0
tp262
a(F-180.0
F-240.0
tp263
a(F-60.0
F-240.0
tp264
a(F60.0
F-240.0
tp265
a(F180.0
F-240.0
tp266
a(F300.0
F-240.0
tp267
a(F420.0
F-240.0
tp268
a(F540.0
F-240.0
tp269
a(F660.0
F-240.0
tp270
a(F780.0
F-240.0
tp271
a(F900.0
F-240.0
tp272
a(F-900.0
F-360.0
tp273
a(F-780.0
F-360.0
tp274
a(F-660.0
F-360.0
tp275
a(F-540.0
F-360.0
tp276
a(F-420.0
F-360.0
tp277
a(F-300.0
F-360.0
tp278
a(F-180.0
F-360.0
tp279
a(F-60.0
F-360.0
tp280
a(F60.0
F-360.0
tp281
a(F180.0
F-360.0
tp282
a(F300.0
F-360.0
tp283
a(F420.0
F-360.0
tp284
a(F540.0
F-360.0
tp285
a(F660.0
F-360.0
tp286
a(F780.0
F-360.0
tp287
a(F900.0
F-360.0
tp288
a(F-900.0
F-480.0
tp289
a(F-780.0
F-480.0
tp290
a(F-660.0
F-480.0
tp291
a(F-540.0
F-480.0
tp292
a(F-420.0
F-480.0
tp293
a(F-300.0
F-480.0
tp294
a(F-180.0
F-480.0
tp295
a(F-60.0
F-480.0
tp296
a(F60.0
F-480.0
tp297
a(F180.0
F-480.0
tp298
a(F300.0
F-480.0
tp299
a(F420.0
F-480.0
tp300
a(F540.0
F-480.0
tp301
a(F660.0
F-480.0
tp302
a(F780.0
F-480.0
tp303
a(F900.0
F-480.0
tp304
asS'trial_num_in_block'
p305
I1
sS'n_cols'
p306
I16
sS'flags'
p307
(lp308
I2
aI0
aI0
aI0
aI2
aI0
aI0
aI0
aI2
aI0
aI0
aI0
aI0
aI0
aI3
aI0
aI0
aI0
aI1
aI0
aI0
aI0
aI1
aI0
aI0
aI0
aI0
aI0
aI0
aI0
aI0
aI0
aI0
aI0
aI0
aI2
aI0
aI1
aI0
aI2
aI0
aI0
aI1
aI0
aI3
aI0
aI0
aI0
aI1
aI0
aI0
aI0
aI0
aI0
aI0
aI0
aI0
aI0
aI0
aI0
aI0
aI0
aI0
aI1
aI0
aI3
aI0
aI0
aI0
aI1
aI0
aI0
aI1
aI3
aI0
aI0
aI0
aI1
aI0
aI0
aI0
aI0
aI0
aI0
aI0
aI0
aI0
aI0
aI0
aI0
aI0
aI3
aI0
aI0
aI0
aI3
aI0
aI0
aI0
aI1
aI0
aI0
aI0
aI3
aI0
aI0
aI0
aI0
aI0
aI0
aI0
aI0
aI0
aI3
aI0
aI0
aI0
aI3
aI0
aI0
aI0
aI0
aI0
aI0
aI0
aI3
aI0
aI1
aI1
aI0
aI0
aI0
aI1
aI0
aI0
aI0
aI0
aI1
aI0
aI0
aI1
aI0
aI0
aI0
asS'n_rows'
p309
I9
sS'trial_duration'
p310
I30
sS'screen_height'
p311
I1080
ssI2
(dp312
g2
I2
sg3
g4
sg5
I2
sg6
g7
sg8
VTrial 10
p313
sg10
g11
sg12
I10
sg13
g14
sg15
g16
sg17
(dp314
I1
(dp315
g20
I-60
sg21
I0
sg22
I-10
sg23
I4
sg24
I71
sg8
g313
sg25
I2
sg12
I0
sg26
F171.91164466927603
sg27
I0
sg28
I1
ssI2
(dp316
g20
I-60
sg21
I0
sg22
I-9
sg23
I2
sg24
I71
sg8
g313
sg25
I2
sg12
I0
sg26
F171.99496874125452
sg27
I0
sg28
I2
ssI3
(dp317
g20
I-60
sg21
I0
sg22
I-10
sg23
I2
sg24
I71
sg8
g313
sg25
I2
sg12
I0
sg26
F172.07822686792588
sg27
I0
sg28
I3
ssI4
(dp318
g20
I-60
sg21
I120
sg22
I-12
sg23
I125
sg24
I55
sg8
g313
sg25
I2
sg12
I0
sg26
F172.17827058598232
sg27
I0
sg28
I4
ssI5
(dp319
g20
I60
sg21
I120
sg22
I2
sg23
I121
sg24
I56
sg8
g313
sg25
I2
sg12
I1
sg26
F172.26991481339155
sg27
I2
sg28
I5
ssI6
(dp320
g20
I60
sg21
I120
sg22
I34
sg23
I126
sg24
I56
sg8
g313
sg25
I2
sg12
I1
sg26
F172.51160202241226
sg27
I3
sg28
I6
ssI7
(dp321
g20
I60
sg21
I120
sg22
I29
sg23
I126
sg24
I56
sg8
g313
sg25
I2
sg12
I1
sg26
F172.678318789659
sg27
I3
sg28
I7
ssI8
(dp322
g20
I-300
sg21
I120
sg22
I-245
sg23
I143
sg24
I53
sg8
g313
sg25
I2
sg12
I2
sg26
F172.85337144548066
sg27
I2
sg28
I8
ssI9
(dp323
g20
I-300
sg21
I120
sg22
I-244
sg23
I142
sg24
I53
sg8
g313
sg25
I2
sg12
I2
sg26
F173.09493245459817
sg27
I3
sg28
I9
ssI10
(dp324
g20
I-300
sg21
I120
sg22
I-243
sg23
I140
sg24
I53
sg8
g313
sg25
I2
sg12
I2
sg26
F173.2697568124513
sg27
I3
sg28
I10
ssI11
(dp325
g20
I-180
sg21
I120
sg22
I-206
sg23
I133
sg24
I54
sg8
g313
sg25
I2
sg12
I2
sg26
F173.43652847832982
sg27
I1
sg28
I11
ssI12
(dp326
g20
I-180
sg21
I120
sg22
I-199
sg23
I134
sg24
I54
sg8
g313
sg25
I2
sg12
I2
sg26
F173.6115563628182
sg27
I1
sg28
I12
ssI13
(dp327
g20
I-180
sg21
I120
sg22
I-197
sg23
I130
sg24
I54
sg8
g313
sg25
I2
sg12
I2
sg26
F173.7782138797129
sg27
I1
sg28
I13
ssI14
(dp328
g20
I-420
sg21
I360
sg22
I-442
sg23
I389
sg24
I20
sg8
g313
sg25
I2
sg12
I2
sg26
F173.93645249059045
sg27
I1
sg28
I14
ssI15
(dp329
g20
I-420
sg21
I360
sg22
I-445
sg23
I394
sg24
I20
sg8
g313
sg25
I2
sg12
I2
sg26
F174.10300523143815
sg27
I1
sg28
I15
ssI16
(dp330
g20
I-420
sg21
I360
sg22
I-446
sg23
I395
sg24
I20
sg8
g313
sg25
I2
sg12
I2
sg26
F174.26139247031733
sg27
I1
sg28
I16
ssI17
(dp331
g20
I-420
sg21
I360
sg22
I-439
sg23
I394
sg24
I20
sg8
g313
sg25
I2
sg12
I2
sg26
F174.42812664444773
sg27
I1
sg28
I17
ssI18
(dp332
g20
I-540
sg21
I360
sg22
I-497
sg23
I367
sg24
I19
sg8
g313
sg25
I2
sg12
I3
sg26
F174.59462716464623
sg27
I2
sg28
I18
ssI19
(dp333
g20
I-540
sg21
I360
sg22
I-582
sg23
I370
sg24
I19
sg8
g313
sg25
I2
sg12
I3
sg26
F174.84456925328504
sg27
I3
sg28
I19
ssI20
(dp334
g20
I-780
sg21
I360
sg22
I-786
sg23
I383
sg24
I17
sg8
g313
sg25
I2
sg12
I3
sg26
F175.0113456056324
sg27
I1
sg28
I20
ssI21
(dp335
g20
I-780
sg21
I360
sg22
I-782
sg23
I379
sg24
I17
sg8
g313
sg25
I2
sg12
I3
sg26
F175.17797667745435
sg27
I1
sg28
I21
ssI22
(dp336
g20
I-780
sg21
I360
sg22
I-786
sg23
I377
sg24
I17
sg8
g313
sg25
I2
sg12
I3
sg26
F175.33641312425425
sg27
I1
sg28
I22
ssI23
(dp337
g20
I-900
sg21
I480
sg22
I-904
sg23
I487
sg24
I0
sg8
g313
sg25
I2
sg12
I4
sg26
F175.51133690219012
sg27
I2
sg28
I23
ssI24
(dp338
g20
I-900
sg21
I480
sg22
I-897
sg23
I488
sg24
I0
sg8
g313
sg25
I2
sg12
I4
sg26
F175.7528574068292
sg27
I3
sg28
I24
ssI25
(dp339
g20
I-900
sg21
I360
sg22
I-931
sg23
I319
sg24
I16
sg8
g313
sg25
I2
sg12
I4
sg26
F175.91943257577623
sg27
I0
sg28
I25
ssI26
(dp340
g20
I-900
sg21
I120
sg22
I-887
sg23
I86
sg24
I48
sg8
g313
sg25
I2
sg12
I4
sg26
F176.01116551134055
sg27
I1
sg28
I26
ssI27
(dp341
g20
I-900
sg21
I120
sg22
I-879
sg23
I123
sg24
I48
sg8
g313
sg25
I2
sg12
I4
sg26
F176.16950287280542
sg27
I1
sg28
I27
ssI28
(dp342
g20
I-900
sg21
I120
sg22
I-877
sg23
I121
sg24
I48
sg8
g313
sg25
I2
sg12
I4
sg26
F176.32784492073824
sg27
I1
sg28
I28
ssI29
(dp343
g20
I-660
sg21
I120
sg22
I-646
sg23
I147
sg24
I50
sg8
g313
sg25
I2
sg12
I5
sg26
F176.48611667164278
sg27
I2
sg28
I29
ssI30
(dp344
g20
I-660
sg21
I120
sg22
I-645
sg23
I142
sg24
I50
sg8
g313
sg25
I2
sg12
I5
sg26
F176.73618864241053
sg27
I3
sg28
I30
ssI31
(dp345
g20
I-540
sg21
I-120
sg22
I-510
sg23
I-68
sg24
I83
sg8
g313
sg25
I2
sg12
I5
sg26
F176.9027253153654
sg27
I1
sg28
I31
ssI32
(dp346
g20
I-540
sg21
I-120
sg22
I-509
sg23
I-75
sg24
I83
sg8
g313
sg25
I2
sg12
I5
sg26
F177.069413629054
sg27
I1
sg28
I32
ssI33
(dp347
g20
I-540
sg21
I-120
sg22
I-506
sg23
I-78
sg24
I83
sg8
g313
sg25
I2
sg12
I5
sg26
F177.22773559212146
sg27
I1
sg28
I33
ssI34
(dp348
g20
I-660
sg21
I-240
sg22
I-640
sg23
I-291
sg24
I98
sg8
g313
sg25
I2
sg12
I5
sg26
F177.39432548997047
sg27
I0
sg28
I34
ssI35
(dp349
g20
I-660
sg21
I-240
sg22
I-635
sg23
I-292
sg24
I98
sg8
g313
sg25
I2
sg12
I5
sg26
F177.49424535135768
sg27
I0
sg28
I35
ssI36
(dp350
g20
I-660
sg21
I-240
sg22
I-638
sg23
I-295
sg24
I98
sg8
g313
sg25
I2
sg12
I5
sg26
F177.57756540636365
sg27
I0
sg28
I36
ssI37
(dp351
g20
I-660
sg21
I-240
sg22
I-640
sg23
I-293
sg24
I98
sg8
g313
sg25
I2
sg12
I5
sg26
F177.66104647503926
sg27
I0
sg28
I37
ssI38
(dp352
g20
I-660
sg21
I-240
sg22
I-635
sg23
I-295
sg24
I98
sg8
g313
sg25
I2
sg12
I5
sg26
F177.74431531363825
sg27
I0
sg28
I38
ssI39
(dp353
g20
I-660
sg21
I-360
sg22
I-634
sg23
I-330
sg24
I114
sg8
g313
sg25
I2
sg12
I6
sg26
F177.8276624832124
sg27
I2
sg28
I39
ssI40
(dp354
g20
I-660
sg21
I-360
sg22
I-629
sg23
I-329
sg24
I114
sg8
g313
sg25
I2
sg12
I6
sg26
F178.0693001495647
sg27
I3
sg28
I40
ssI41
(dp355
g20
I-660
sg21
I-360
sg22
I-633
sg23
I-329
sg24
I114
sg8
g313
sg25
I2
sg12
I6
sg26
F178.23590109408906
sg27
I3
sg28
I41
ssI42
(dp356
g20
I-900
sg21
I-480
sg22
I-858
sg23
I-434
sg24
I128
sg8
g313
sg25
I2
sg12
I6
sg26
F178.39421234522888
sg27
I1
sg28
I42
ssI43
(dp357
g20
I-900
sg21
I-480
sg22
I-846
sg23
I-435
sg24
I128
sg8
g313
sg25
I2
sg12
I6
sg26
F178.56090869286345
sg27
I1
sg28
I43
ssI44
(dp358
g20
I-900
sg21
I-480
sg22
I-844
sg23
I-431
sg24
I128
sg8
g313
sg25
I2
sg12
I6
sg26
F178.71930162245553
sg27
I1
sg28
I44
ssI45
(dp359
g20
I-900
sg21
I-120
sg22
I-868
sg23
I-126
sg24
I80
sg8
g313
sg25
I2
sg12
I7
sg26
F178.877556301225
sg27
I2
sg28
I45
ssI46
(dp360
g20
I-900
sg21
I-120
sg22
I-875
sg23
I-127
sg24
I80
sg8
g313
sg25
I2
sg12
I7
sg26
F179.1191320392427
sg27
I3
sg28
I46
ssI47
(dp361
g20
I-900
sg21
I-120
sg22
I-880
sg23
I-122
sg24
I80
sg8
g313
sg25
I2
sg12
I7
sg26
F179.27754003248356
sg27
I3
sg28
I47
ssI48
(dp362
g20
I-180
sg21
I-240
sg22
I-225
sg23
I-195
sg24
I102
sg8
g313
sg25
I2
sg12
I7
sg26
F179.435737804135
sg27
I0
sg28
I48
ssI49
(dp363
g20
I-180
sg21
I-240
sg22
I-222
sg23
I-192
sg24
I102
sg8
g313
sg25
I2
sg12
I7
sg26
F179.5191392028446
sg27
I0
sg28
I49
ssI50
(dp364
g20
I-300
sg21
I-240
sg22
I-279
sg23
I-241
sg24
I101
sg8
g313
sg25
I2
sg12
I8
sg26
F179.60238159637174
sg27
I2
sg28
I50
ssI51
(dp365
g20
I-300
sg21
I-240
sg22
I-276
sg23
I-238
sg24
I101
sg8
g313
sg25
I2
sg12
I8
sg26
F179.84411232260027
sg27
I3
sg28
I51
ssI52
(dp366
g20
I-300
sg21
I-240
sg22
I-268
sg23
I-239
sg24
I101
sg8
g313
sg25
I2
sg12
I8
sg26
F180.01899961303116
sg27
I3
sg28
I52
ssI53
(dp367
g20
I-180
sg21
I-360
sg22
I-159
sg23
I-339
sg24
I118
sg8
g313
sg25
I2
sg12
I8
sg26
F180.1774373988219
sg27
I1
sg28
I53
ssI54
(dp368
g20
I-180
sg21
I-360
sg22
I-164
sg23
I-343
sg24
I118
sg8
g313
sg25
I2
sg12
I8
sg26
F180.34395833863346
sg27
I1
sg28
I54
ssI55
(dp369
g20
I-180
sg21
I120
sg22
I-220
sg23
I76
sg24
I54
sg8
g313
sg25
I2
sg12
I8
sg26
F180.5023499292338
sg27
I1
sg28
I55
ssI56
(dp370
g20
I-180
sg21
I120
sg22
I-232
sg23
I150
sg24
I54
sg8
g313
sg25
I2
sg12
I8
sg26
F180.66070302384287
sg27
I1
sg28
I56
ssI57
(dp371
g20
I-180
sg21
I120
sg22
I-179
sg23
I134
sg24
I54
sg8
g313
sg25
I2
sg12
I8
sg26
F180.8189342702699
sg27
I1
sg28
I57
ssI58
(dp372
g20
I-60
sg21
I480
sg22
I-46
sg23
I487
sg24
I7
sg8
g313
sg25
I2
sg12
I9
sg26
F180.98572300828437
sg27
I2
sg28
I58
ssI59
(dp373
g20
I-60
sg21
I480
sg22
I-38
sg23
I486
sg24
I7
sg8
g313
sg25
I2
sg12
I9
sg26
F181.22724652565284
sg27
I3
sg28
I59
ssI60
(dp374
g20
I60
sg21
I480
sg22
I96
sg23
I423
sg24
I8
sg8
g313
sg25
I2
sg12
I9
sg26
F181.3938719067628
sg27
I0
sg28
I60
ssI61
(dp375
g20
I180
sg21
I360
sg22
I193
sg23
I372
sg24
I25
sg8
g313
sg25
I2
sg12
I9
sg26
F181.49376498833044
sg27
I1
sg28
I61
ssI62
(dp376
g20
I180
sg21
I360
sg22
I189
sg23
I368
sg24
I25
sg8
g313
sg25
I2
sg12
I9
sg26
F181.66053698895757
sg27
I1
sg28
I62
ssI63
(dp377
g20
I180
sg21
I360
sg22
I189
sg23
I367
sg24
I25
sg8
g313
sg25
I2
sg12
I9
sg26
F181.81889878700804
sg27
I1
sg28
I63
ssI64
(dp378
g20
I60
sg21
I120
sg22
I84
sg23
I120
sg24
I56
sg8
g313
sg25
I2
sg12
I9
sg26
F181.97717321589425
sg27
I3
sg28
I64
ssI65
(dp379
g20
I60
sg21
I120
sg22
I88
sg23
I110
sg24
I56
sg8
g313
sg25
I2
sg12
I9
sg26
F182.13546404742192
sg27
I3
sg28
I65
ssI66
(dp380
g20
I60
sg21
I120
sg22
I90
sg23
I112
sg24
I56
sg8
g313
sg25
I2
sg12
I9
sg26
F182.30212223381204
sg27
I3
sg28
I66
ssI67
(dp381
g20
I180
sg21
I120
sg22
I194
sg23
I69
sg24
I57
sg8
g313
sg25
I2
sg12
I9
sg26
F182.46040335765338
sg27
I0
sg28
I67
ssI68
(dp382
g20
I300
sg21
I0
sg22
I314
sg23
I7
sg24
I74
sg8
g313
sg25
I2
sg12
I10
sg26
F182.5520442375846
sg27
I2
sg28
I68
sssg151
I39
sg152
I1920
sg153
S'trial02.png'
p383
sg155
VTrial 10->trial02.png
p384
sg157
S'results\\P039\\trial_png\\trial02.png'
p385
sg159
g160
sg305
I2
sg306
I16
sg307
(lp386
I3
aI0
aI0
aI0
aI0
aI0
aI0
aI3
aI0
aI0
aI0
aI0
aI0
aI0
aI0
aI1
aI0
aI1
aI0
aI3
aI1
aI0
aI0
aI0
aI0
aI1
aI0
aI0
aI0
aI0
aI0
aI0
aI0
aI0
aI0
aI0
aI0
aI0
aI0
aI0
aI0
aI0
aI0
aI1
aI0
aI2
aI1
aI0
aI1
aI0
aI3
aI0
aI0
aI3
aI1
aI0
aI3
aI0
aI0
aI0
aI0
aI0
aI0
aI0
aI0
aI0
aI0
aI0
aI0
aI0
aI0
aI0
aI0
aI0
aI3
aI0
aI0
aI0
aI0
aI0
aI3
aI0
aI0
aI1
aI0
aI0
aI0
aI0
aI0
aI0
aI0
aI2
aI0
aI2
aI0
aI1
aI0
aI0
aI0
aI0
aI0
aI3
aI0
aI0
aI0
aI1
aI0
aI0
aI0
aI0
aI0
aI0
aI0
aI0
aI3
aI0
aI0
aI0
aI1
aI0
aI0
aI0
aI0
aI1
aI0
aI1
aI0
aI0
aI1
aI0
aI0
aI0
aI0
aI0
aI0
aI0
aI2
aI0
aI0
aI0
aI0
aI0
aI0
aI2
asg309
I9
sg310
I30
sg311
I1080
ssI3
(dp387
g2
I3
sg3
g4
sg5
I2
sg6
g7
sg8
VTrial 5
p388
sg10
g11
sg12
I10
sg13
g14
sg15
g16
sg17
(dp389
I1
(dp390
g20
I-60
sg21
I0
sg22
I-1
sg23
I-2
sg24
I71
sg8
g388
sg25
I3
sg12
I0
sg26
F188.27637042383049
sg27
I0
sg28
I1
ssI2
(dp391
g20
I-60
sg21
I0
sg22
I-1
sg23
I-5
sg24
I71
sg8
g388
sg25
I3
sg12
I0
sg26
F188.36800025708635
sg27
I0
sg28
I2
ssI3
(dp392
g20
I-60
sg21
I0
sg22
I-2
sg23
I-7
sg24
I71
sg8
g388
sg25
I3
sg12
I0
sg26
F188.45965352268468
sg27
I0
sg28
I3
ssI4
(dp393
g20
I60
sg21
I-120
sg22
I87
sg23
I-89
sg24
I88
sg8
g388
sg25
I3
sg12
I0
sg26
F188.559645020091
sg27
I0
sg28
I4
ssI5
(dp394
g20
I-60
sg21
I-120
sg22
I-24
sg23
I-99
sg24
I87
sg8
g388
sg25
I3
sg12
I0
sg26
F188.65131736631156
sg27
I1
sg28
I5
ssI6
(dp395
g20
I-60
sg21
I-120
sg22
I-24
sg23
I-102
sg24
I87
sg8
g388
sg25
I3
sg12
I0
sg26
F188.81795546783633
sg27
I1
sg28
I6
ssI7
(dp396
g20
I-60
sg21
I-120
sg22
I-24
sg23
I-109
sg24
I87
sg8
g388
sg25
I3
sg12
I0
sg26
F188.98484697341155
sg27
I1
sg28
I7
ssI8
(dp397
g20
I180
sg21
I-120
sg22
I171
sg23
I-111
sg24
I89
sg8
g388
sg25
I3
sg12
I1
sg26
F189.1512507515081
sg27
I2
sg28
I8
ssI9
(dp398
g20
I180
sg21
I-120
sg22
I171
sg23
I-117
sg24
I89
sg8
g388
sg25
I3
sg12
I1
sg26
F189.40953709741552
sg27
I3
sg28
I9
ssI10
(dp399
g20
I180
sg21
I-120
sg22
I172
sg23
I-112
sg24
I89
sg8
g388
sg25
I3
sg12
I1
sg26
F189.5763783908269
sg27
I3
sg28
I10
ssI11
(dp400
g20
I300
sg21
I0
sg22
I292
sg23
I-16
sg24
I74
sg8
g388
sg25
I3
sg12
I1
sg26
F189.74288895345762
sg27
I1
sg28
I11
ssI12
(dp401
g20
I300
sg21
I0
sg22
I293
sg23
I-8
sg24
I74
sg8
g388
sg25
I3
sg12
I1
sg26
F189.90943064762996
sg27
I1
sg28
I12
ssI13
(dp402
g20
I300
sg21
I0
sg22
I287
sg23
I-8
sg24
I74
sg8
g388
sg25
I3
sg12
I1
sg26
F190.07607243137954
sg27
I1
sg28
I13
ssI14
(dp403
g20
I300
sg21
I-120
sg22
I352
sg23
I-78
sg24
I90
sg8
g388
sg25
I3
sg12
I1
sg26
F190.24275103738273
sg27
I0
sg28
I14
ssI15
(dp404
g20
I420
sg21
I-480
sg22
I383
sg23
I-439
sg24
I139
sg8
g388
sg25
I3
sg12
I2
sg26
F190.33437852740462
sg27
I2
sg28
I15
ssI16
(dp405
g20
I420
sg21
I-480
sg22
I387
sg23
I-438
sg24
I139
sg8
g388
sg25
I3
sg12
I2
sg26
F190.57616883873288
sg27
I3
sg28
I16
ssI17
(dp406
g20
I300
sg21
I-480
sg22
I354
sg23
I-447
sg24
I138
sg8
g388
sg25
I3
sg12
I2
sg26
F190.74273999070738
sg27
I0
sg28
I17
ssI18
(dp407
g20
I180
sg21
I-480
sg22
I157
sg23
I-466
sg24
I137
sg8
g388
sg25
I3
sg12
I2
sg26
F190.834427065829
sg27
I1
sg28
I18
ssI19
(dp408
g20
I180
sg21
I-480
sg22
I163
sg23
I-462
sg24
I137
sg8
g388
sg25
I3
sg12
I2
sg26
F191.00104039601956
sg27
I1
sg28
I19
ssI20
(dp409
g20
I180
sg21
I-480
sg22
I171
sg23
I-467
sg24
I137
sg8
g388
sg25
I3
sg12
I2
sg26
F191.15935599888053
sg27
I1
sg28
I20
ssI21
(dp410
g20
I180
sg21
I-480
sg22
I176
sg23
I-471
sg24
I137
sg8
g388
sg25
I3
sg12
I2
sg26
F191.34267391150024
sg27
I1
sg28
I21
ssI22
(dp411
g20
I-60
sg21
I-480
sg22
I-1
sg23
I-435
sg24
I135
sg8
g388
sg25
I3
sg12
I3
sg26
F191.5092437244839
sg27
I2
sg28
I22
ssI23
(dp412
g20
I-60
sg21
I-480
sg22
I-40
sg23
I-440
sg24
I135
sg8
g388
sg25
I3
sg12
I3
sg26
F191.76761342258123
sg27
I3
sg28
I23
ssI24
(dp413
g20
I660
sg21
I-360
sg22
I699
sg23
I-303
sg24
I125
sg8
g388
sg25
I3
sg12
I3
sg26
F191.93423445197095
sg27
I0
sg28
I24
ssI25
(dp414
g20
I660
sg21
I-240
sg22
I710
sg23
I-280
sg24
I109
sg8
g388
sg25
I3
sg12
I4
sg26
F192.02585424279368
sg27
I2
sg28
I25
ssI26
(dp415
g20
I660
sg21
I-240
sg22
I684
sg23
I-230
sg24
I109
sg8
g388
sg25
I3
sg12
I4
sg26
F192.27590512445204
sg27
I3
sg28
I26
ssI27
(dp416
g20
I780
sg21
I-240
sg22
I757
sg23
I-297
sg24
I110
sg8
g388
sg25
I3
sg12
I4
sg26
F192.4426536927358
sg27
I0
sg28
I27
ssI28
(dp417
g20
I780
sg21
I-360
sg22
I785
sg23
I-324
sg24
I126
sg8
g388
sg25
I3
sg12
I4
sg26
F192.53424067827928
sg27
I1
sg28
I28
ssI29
(dp418
g20
I780
sg21
I-360
sg22
I787
sg23
I-322
sg24
I126
sg8
g388
sg25
I3
sg12
I4
sg26
F192.69250238675158
sg27
I1
sg28
I29
ssI30
(dp419
g20
I780
sg21
I-360
sg22
I787
sg23
I-324
sg24
I126
sg8
g388
sg25
I3
sg12
I4
sg26
F192.85080828192713
sg27
I1
sg28
I30
ssI31
(dp420
g20
I780
sg21
I-360
sg22
I786
sg23
I-324
sg24
I126
sg8
g388
sg25
I3
sg12
I4
sg26
F193.01742596383883
sg27
I1
sg28
I31
ssI32
(dp421
g20
I900
sg21
I-120
sg22
I900
sg23
I-109
sg24
I95
sg8
g388
sg25
I3
sg12
I5
sg26
F193.17579345260128
sg27
I2
sg28
I32
ssI33
(dp422
g20
I900
sg21
I-120
sg22
I901
sg23
I-105
sg24
I95
sg8
g388
sg25
I3
sg12
I5
sg26
F193.41745789877496
sg27
I3
sg28
I33
ssI34
(dp423
g20
I780
sg21
I0
sg22
I793
sg23
I-35
sg24
I78
sg8
g388
sg25
I3
sg12
I5
sg26
F193.57579526023983
sg27
I0
sg28
I34
ssI35
(dp424
g20
I540
sg21
I120
sg22
I551
sg23
I153
sg24
I60
sg8
g388
sg25
I3
sg12
I5
sg26
F193.6591216754523
sg27
I1
sg28
I35
ssI36
(dp425
g20
I540
sg21
I120
sg22
I550
sg23
I157
sg24
I60
sg8
g388
sg25
I3
sg12
I5
sg26
F193.81737434573552
sg27
I1
sg28
I36
ssI37
(dp426
g20
I780
sg21
I240
sg22
I728
sg23
I246
sg24
I46
sg8
g388
sg25
I3
sg12
I6
sg26
F193.98409713844194
sg27
I2
sg28
I37
ssI38
(dp427
g20
I780
sg21
I240
sg22
I780
sg23
I290
sg24
I46
sg8
g388
sg25
I3
sg12
I6
sg26
F194.22570668598382
sg27
I3
sg28
I38
ssI39
(dp428
g20
I900
sg21
I480
sg22
I872
sg23
I494
sg24
I15
sg8
g388
sg25
I3
sg12
I6
sg26
F194.39242646596085
sg27
I1
sg28
I39
ssI40
(dp429
g20
I900
sg21
I480
sg22
I874
sg23
I503
sg24
I15
sg8
g388
sg25
I3
sg12
I6
sg26
F194.5505418896646
sg27
I1
sg28
I40
ssI41
(dp430
g20
I900
sg21
I480
sg22
I872
sg23
I499
sg24
I15
sg8
g388
sg25
I3
sg12
I6
sg26
F194.7089107174179
sg27
I1
sg28
I41
ssI42
(dp431
g20
I660
sg21
I480
sg22
I682
sg23
I496
sg24
I13
sg8
g388
sg25
I3
sg12
I7
sg26
F194.86731000721738
sg27
I2
sg28
I42
ssI43
(dp432
g20
I660
sg21
I480
sg22
I656
sg23
I497
sg24
I13
sg8
g388
sg25
I3
sg12
I7
sg26
F195.10897813561587
sg27
I3
sg28
I43
ssI44
(dp433
g20
I660
sg21
I480
sg22
I661
sg23
I498
sg24
I13
sg8
g388
sg25
I3
sg12
I7
sg26
F195.26716553008646
sg27
I3
sg28
I44
ssI45
(dp434
g20
I420
sg21
I360
sg22
I421
sg23
I392
sg24
I27
sg8
g388
sg25
I3
sg12
I8
sg26
F195.4255788792907
sg27
I2
sg28
I45
ssI46
(dp435
g20
I420
sg21
I360
sg22
I425
sg23
I388
sg24
I27
sg8
g388
sg25
I3
sg12
I8
sg26
F195.66719779976938
sg27
I3
sg28
I46
ssI47
(dp436
g20
I300
sg21
I480
sg22
I304
sg23
I499
sg24
I10
sg8
g388
sg25
I3
sg12
I8
sg26
F195.84220292141072
sg27
I1
sg28
I47
ssI48
(dp437
g20
I300
sg21
I480
sg22
I295
sg23
I507
sg24
I10
sg8
g388
sg25
I3
sg12
I8
sg26
F196.0004211126743
sg27
I1
sg28
I48
ssI49
(dp438
g20
I300
sg21
I480
sg22
I300
sg23
I506
sg24
I10
sg8
g388
sg25
I3
sg12
I8
sg26
F196.16715093508446
sg27
I1
sg28
I49
ssI50
(dp439
g20
I-60
sg21
I360
sg22
I-41
sg23
I364
sg24
I23
sg8
g388
sg25
I3
sg12
I8
sg26
F196.333735811716
sg27
I1
sg28
I50
ssI51
(dp440
g20
I-60
sg21
I360
sg22
I-48
sg23
I359
sg24
I23
sg8
g388
sg25
I3
sg12
I8
sg26
F196.5004914097026
sg27
I1
sg28
I51
ssI52
(dp441
g20
I-60
sg21
I360
sg22
I-47
sg23
I363
sg24
I23
sg8
g388
sg25
I3
sg12
I8
sg26
F196.65862189705513
sg27
I1
sg28
I52
ssI53
(dp442
g20
I-60
sg21
I360
sg22
I-46
sg23
I359
sg24
I23
sg8
g388
sg25
I3
sg12
I8
sg26
F196.8170081316921
sg27
I1
sg28
I53
ssI54
(dp443
g20
I-300
sg21
I240
sg22
I-295
sg23
I269
sg24
I37
sg8
g388
sg25
I3
sg12
I9
sg26
F196.97535955256262
sg27
I2
sg28
I54
ssI55
(dp444
g20
I-300
sg21
I240
sg22
I-295
sg23
I265
sg24
I37
sg8
g388
sg25
I3
sg12
I9
sg26
F197.21694232028403
sg27
I3
sg28
I55
ssI56
(dp445
g20
I-420
sg21
I480
sg22
I-381
sg23
I485
sg24
I4
sg8
g388
sg25
I3
sg12
I9
sg26
F197.3836540663151
sg27
I1
sg28
I56
ssI57
(dp446
g20
I-420
sg21
I480
sg22
I-391
sg23
I496
sg24
I4
sg8
g388
sg25
I3
sg12
I9
sg26
F197.5503326723183
sg27
I1
sg28
I57
ssI58
(dp447
g20
I-420
sg21
I480
sg22
I-394
sg23
I498
sg24
I4
sg8
g388
sg25
I3
sg12
I9
sg26
F197.72518012776618
sg27
I1
sg28
I58
ssI59
(dp448
g20
I-660
sg21
I480
sg22
I-649
sg23
I506
sg24
I2
sg8
g388
sg25
I3
sg12
I10
sg26
F197.8919983235828
sg27
I2
sg28
I59
sssg151
I39
sg152
I1920
sg153
S'trial03.png'
p449
sg155
VTrial 5->trial03.png
p450
sg157
S'results\\P039\\trial_png\\trial03.png'
p451
sg159
g160
sg305
I3
sg306
I16
sg307
(lp452
I2
aI0
aI3
aI0
aI1
aI0
aI0
aI0
aI0
aI0
aI1
aI0
aI0
aI3
aI0
aI1
aI0
aI0
aI0
aI0
aI0
aI0
aI0
aI1
aI0
aI0
aI0
aI3
aI0
aI0
aI0
aI0
aI0
aI1
aI0
aI0
aI0
aI3
aI0
aI0
aI2
aI0
aI0
aI0
aI0
aI0
aI3
aI0
aI0
aI0
aI0
aI1
aI0
aI0
aI0
aI0
aI0
aI0
aI0
aI0
aI1
aI0
aI0
aI0
aI2
aI0
aI0
aI0
aI0
aI0
aI0
aI0
aI0
aI0
aI1
aI0
aI0
aI0
aI0
aI0
aI0
aI0
aI2
aI0
aI0
aI1
aI0
aI1
aI0
aI3
aI0
aI0
aI0
aI0
aI0
aI3
aI0
aI0
aI0
aI1
aI0
aI0
aI0
aI0
aI0
aI0
aI0
aI0
aI0
aI3
aI0
aI0
aI1
aI0
aI1
aI0
aI0
aI2
aI0
aI0
aI0
aI0
aI0
aI0
aI0
aI0
aI1
aI0
aI0
aI0
aI0
aI0
aI0
aI0
aI0
aI3
aI0
aI1
aI0
aI3
aI0
aI0
aI0
aI0
asg309
I9
sg310
I30
sg311
I1080
ssI4
(dp453
g2
I4
sg3
g4
sg5
I2
sg6
g7
sg8
VTrial 9
p454
sg10
g11
sg12
I10
sg13
g14
sg15
g16
sg17
(dp455
I1
(dp456
g20
I-60
sg21
I0
sg22
I0
sg23
I-6
sg24
I71
sg8
g454
sg25
I4
sg12
I1
sg26
F203.07452690099853
sg27
I2
sg28
I1
ssI2
(dp457
g20
I-60
sg21
I0
sg22
I-35
sg23
I1
sg24
I71
sg8
g454
sg25
I4
sg12
I1
sg26
F203.31631620808457
sg27
I3
sg28
I2
ssI3
(dp458
g20
I-60
sg21
I0
sg22
I-38
sg23
I2
sg24
I71
sg8
g454
sg25
I4
sg12
I1
sg26
F203.47449824659088
sg27
I3
sg28
I3
ssI4
(dp459
g20
I-300
sg21
I120
sg22
I-311
sg23
I112
sg24
I53
sg8
g454
sg25
I4
sg12
I1
sg26
F203.64948964357336
sg27
I1
sg28
I4
ssI5
(dp460
g20
I-300
sg21
I120
sg22
I-318
sg23
I113
sg24
I53
sg8
g454
sg25
I4
sg12
I1
sg26
F203.81609795254826
sg27
I1
sg28
I5
ssI6
(dp461
g20
I-300
sg21
I120
sg22
I-319
sg23
I114
sg24
I53
sg8
g454
sg25
I4
sg12
I1
sg26
F203.9828856863196
sg27
I1
sg28
I6
ssI7
(dp462
g20
I-420
sg21
I360
sg22
I-427
sg23
I326
sg24
I20
sg8
g454
sg25
I4
sg12
I1
sg26
F204.14949232155595
sg27
I1
sg28
I7
ssI8
(dp463
g20
I-420
sg21
I360
sg22
I-419
sg23
I326
sg24
I20
sg8
g454
sg25
I4
sg12
I1
sg26
F204.31617695301884
sg27
I1
sg28
I8
ssI9
(dp464
g20
I-420
sg21
I360
sg22
I-418
sg23
I326
sg24
I20
sg8
g454
sg25
I4
sg12
I1
sg26
F204.47476671429013
sg27
I1
sg28
I9
ssI10
(dp465
g20
I-300
sg21
I-120
sg22
I-305
sg23
I-85
sg24
I85
sg8
g454
sg25
I4
sg12
I1
sg26
F204.6410118219519
sg27
I1
sg28
I10
ssI11
(dp466
g20
I-300
sg21
I-120
sg22
I-299
sg23
I-92
sg24
I85
sg8
g454
sg25
I4
sg12
I1
sg26
F204.80782533129968
sg27
I1
sg28
I11
ssI12
(dp467
g20
I-300
sg21
I-120
sg22
I-293
sg23
I-94
sg24
I85
sg8
g454
sg25
I4
sg12
I1
sg26
F204.96603883609532
sg27
I1
sg28
I12
ssI13
(dp468
g20
I-300
sg21
I-360
sg22
I-268
sg23
I-322
sg24
I117
sg8
g454
sg25
I4
sg12
I2
sg26
F205.1327877391268
sg27
I2
sg28
I13
ssI14
(dp469
g20
I-300
sg21
I-360
sg22
I-259
sg23
I-325
sg24
I117
sg8
g454
sg25
I4
sg12
I2
sg26
F205.39099073284342
sg27
I3
sg28
I14
ssI15
(dp470
g20
I-540
sg21
I-360
sg22
I-510
sg23
I-376
sg24
I115
sg8
g454
sg25
I4
sg12
I2
sg26
F205.56593693887862
sg27
I0
sg28
I15
ssI16
(dp471
g20
I-540
sg21
I-360
sg22
I-559
sg23
I-400
sg24
I115
sg8
g454
sg25
I4
sg12
I2
sg26
F205.66590634293425
sg27
I0
sg28
I16
ssI17
(dp472
g20
I-540
sg21
I-360
sg22
I-559
sg23
I-393
sg24
I115
sg8
g454
sg25
I4
sg12
I2
sg26
F205.75756864672167
sg27
I0
sg28
I17
ssI18
(dp473
g20
I-540
sg21
I-360
sg22
I-557
sg23
I-392
sg24
I115
sg8
g454
sg25
I4
sg12
I2
sg26
F205.84924869214046
sg27
I0
sg28
I18
ssI195
(dp474
g20
I780
sg21
I-120
sg22
I814
sg23
I-119
sg24
I94
sg8
g454
sg25
I4
sg12
I9
sg26
F214.0567688673873
sg27
I1
sg28
I195
ssI133
(dp475
g20
I-660
sg21
I-360
sg22
I-651
sg23
I-368
sg24
I114
sg8
g454
sg25
I4
sg12
I3
sg26
F208.2573550776542
sg27
I0
sg28
I133
ssI161
(dp476
g20
I-780
sg21
I-360
sg22
I-793
sg23
I-412
sg24
I113
sg8
g454
sg25
I4
sg12
I3
sg26
F208.71563646929462
sg27
I0
sg28
I161
ssI162
(dp477
g20
I-660
sg21
I240
sg22
I-666
sg23
I218
sg24
I34
sg8
g454
sg25
I4
sg12
I3
sg26
F208.80726831103675
sg27
I0
sg28
I162
ssI163
(dp478
g20
I-660
sg21
I240
sg22
I-617
sg23
I185
sg24
I34
sg8
g454
sg25
I4
sg12
I3
sg26
F208.89054585307804
sg27
I0
sg28
I163
ssI164
(dp479
g20
I-660
sg21
I120
sg22
I-603
sg23
I178
sg24
I50
sg8
g454
sg25
I4
sg12
I3
sg26
F208.97382239087528
sg27
I1
sg28
I164
ssI165
(dp480
g20
I-540
sg21
I120
sg22
I-599
sg23
I161
sg24
I51
sg8
g454
sg25
I4
sg12
I3
sg26
F209.14892961058104
sg27
I0
sg28
I165
ssI166
(dp481
g20
I-660
sg21
I120
sg22
I-600
sg23
I151
sg24
I50
sg8
g454
sg25
I4
sg12
I3
sg26
F209.24045868476242
sg27
I1
sg28
I166
ssI167
(dp482
g20
I-900
sg21
I120
sg22
I-876
sg23
I109
sg24
I48
sg8
g454
sg25
I4
sg12
I3
sg26
F209.4072785543176
sg27
I1
sg28
I167
ssI129
(dp483
g20
I-660
sg21
I-360
sg22
I-620
sg23
I-353
sg24
I114
sg8
g454
sg25
I4
sg12
I3
sg26
F208.06572872577544
sg27
I0
sg28
I129
ssI169
(dp484
g20
I-900
sg21
I120
sg22
I-870
sg23
I114
sg24
I48
sg8
g454
sg25
I4
sg12
I3
sg26
F209.7321238004315
sg27
I1
sg28
I169
ssI170
(dp485
g20
I-900
sg21
I120
sg22
I-871
sg23
I119
sg24
I48
sg8
g454
sg25
I4
sg12
I3
sg26
F209.89046718735517
sg27
I1
sg28
I170
ssI171
(dp486
g20
I-660
sg21
I360
sg22
I-647
sg23
I355
sg24
I18
sg8
g454
sg25
I4
sg12
I4
sg26
F210.0488246336854
sg27
I2
sg28
I171
ssI172
(dp487
g20
I-660
sg21
I360
sg22
I-637
sg23
I358
sg24
I18
sg8
g454
sg25
I4
sg12
I4
sg26
F210.29884137107274
sg27
I3
sg28
I172
ssI173
(dp488
g20
I-660
sg21
I360
sg22
I-631
sg23
I355
sg24
I18
sg8
g454
sg25
I4
sg12
I4
sg26
F210.4571596519154
sg27
I3
sg28
I173
ssI174
(dp489
g20
I-900
sg21
I480
sg22
I-863
sg23
I495
sg24
I0
sg8
g454
sg25
I4
sg12
I4
sg26
F210.61547458528094
sg27
I1
sg28
I174
ssI175
(dp490
g20
I-900
sg21
I480
sg22
I-860
sg23
I494
sg24
I0
sg8
g454
sg25
I4
sg12
I4
sg26
F210.78211670377914
sg27
I1
sg28
I175
ssI176
(dp491
g20
I-900
sg21
I480
sg22
I-863
sg23
I491
sg24
I0
sg8
g454
sg25
I4
sg12
I4
sg26
F210.94044703554027
sg27
I1
sg28
I176
ssI136
(dp492
g20
I-660
sg21
I-360
sg22
I-656
sg23
I-388
sg24
I114
sg8
g454
sg25
I4
sg12
I3
sg26
F208.35738674479217
sg27
I0
sg28
I136
ssI178
(dp493
g20
I-60
sg21
I480
sg22
I-21
sg23
I468
sg24
I7
sg8
g454
sg25
I4
sg12
I4
sg26
F211.18205725257758
sg27
I0
sg28
I178
ssI179
(dp494
g20
I-60
sg21
I480
sg22
I-19
sg23
I465
sg24
I7
sg8
g454
sg25
I4
sg12
I4
sg26
F211.26521528967078
sg27
I0
sg28
I179
ssI180
(dp495
g20
I-180
sg21
I480
sg22
I-120
sg23
I454
sg24
I6
sg8
g454
sg25
I4
sg12
I5
sg26
F211.3486012899839
sg27
I2
sg28
I180
ssI181
(dp496
g20
I-180
sg21
I480
sg22
I-149
sg23
I450
sg24
I6
sg8
g454
sg25
I4
sg12
I5
sg26
F211.59030155416713
sg27
I3
sg28
I181
ssI182
(dp497
g20
I60
sg21
I480
sg22
I51
sg23
I463
sg24
I8
sg8
g454
sg25
I4
sg12
I6
sg26
F211.74862619521627
sg27
I2
sg28
I182
ssI183
(dp498
g20
I60
sg21
I480
sg22
I61
sg23
I461
sg24
I8
sg8
g454
sg25
I4
sg12
I6
sg26
F211.99021498839738
sg27
I3
sg28
I183
ssI184
(dp499
g20
I300
sg21
I480
sg22
I259
sg23
I463
sg24
I10
sg8
g454
sg25
I4
sg12
I6
sg26
F212.14857879493502
sg27
I0
sg28
I184
ssI185
(dp500
g20
I420
sg21
I480
sg22
I409
sg23
I458
sg24
I11
sg8
g454
sg25
I4
sg12
I7
sg26
F212.2318626971828
sg27
I2
sg28
I185
ssI186
(dp501
g20
I420
sg21
I480
sg22
I415
sg23
I458
sg24
I11
sg8
g454
sg25
I4
sg12
I7
sg26
F212.47358706320392
sg27
I3
sg28
I186
ssI187
(dp502
g20
I540
sg21
I360
sg22
I589
sg23
I403
sg24
I28
sg8
g454
sg25
I4
sg12
I7
sg26
F212.6401699313501
sg27
I0
sg28
I187
ssI188
(dp503
g20
I660
sg21
I360
sg22
I669
sg23
I357
sg24
I29
sg8
g454
sg25
I4
sg12
I8
sg26
F212.73197785041066
sg27
I2
sg28
I188
ssI189
(dp504
g20
I660
sg21
I360
sg22
I674
sg23
I355
sg24
I29
sg8
g454
sg25
I4
sg12
I8
sg26
F212.98172009463997
sg27
I3
sg28
I189
ssI190
(dp505
g20
I780
sg21
I360
sg22
I787
sg23
I335
sg24
I30
sg8
g454
sg25
I4
sg12
I8
sg26
F213.14844556532807
sg27
I1
sg28
I190
ssI191
(dp506
g20
I780
sg21
I360
sg22
I785
sg23
I337
sg24
I30
sg8
g454
sg25
I4
sg12
I8
sg26
F213.30670861279214
sg27
I1
sg28
I191
ssI192
(dp507
g20
I780
sg21
I360
sg22
I785
sg23
I338
sg24
I30
sg8
g454
sg25
I4
sg12
I8
sg26
F213.47345885481445
sg27
I1
sg28
I192
ssI193
(dp508
g20
I900
sg21
I120
sg22
I894
sg23
I104
sg24
I63
sg8
g454
sg25
I4
sg12
I9
sg26
F213.64002398132925
sg27
I2
sg28
I193
ssI194
(dp509
g20
I900
sg21
I120
sg22
I901
sg23
I104
sg24
I63
sg8
g454
sg25
I4
sg12
I9
sg26
F213.8899242264979
sg27
I3
sg28
I194
ssI139
(dp510
g20
I-660
sg21
I-360
sg22
I-631
sg23
I-383
sg24
I114
sg8
g454
sg25
I4
sg12
I3
sg26
F208.45733706822557
sg27
I0
sg28
I139
ssI196
(dp511
g20
I780
sg21
I-120
sg22
I800
sg23
I-140
sg24
I94
sg8
g454
sg25
I4
sg12
I9
sg26
F214.22331390903673
sg27
I1
sg28
I196
ssI197
(dp512
g20
I780
sg21
I-120
sg22
I803
sg23
I-145
sg24
I94
sg8
g454
sg25
I4
sg12
I9
sg26
F214.3898994551646
sg27
I1
sg28
I197
ssI130
(dp513
g20
I-660
sg21
I-360
sg22
I-643
sg23
I-365
sg24
I114
sg8
g454
sg25
I4
sg12
I3
sg26
F208.15730566888578
sg27
I0
sg28
I130
ssI199
(dp514
g20
I540
sg21
I0
sg22
I548
sg23
I-11
sg24
I76
sg8
g454
sg25
I4
sg12
I10
sg26
F214.70653133038104
sg27
I2
sg28
I199
ssI177
(dp515
g20
I-60
sg21
I480
sg22
I-18
sg23
I471
sg24
I7
sg8
g454
sg25
I4
sg12
I4
sg26
F211.0986906676344
sg27
I0
sg28
I177
ssI198
(dp516
g20
I780
sg21
I-120
sg22
I804
sg23
I-151
sg24
I94
sg8
g454
sg25
I4
sg12
I9
sg26
F214.5482287826826
sg27
I1
sg28
I198
ssI103
(dp517
g20
I-540
sg21
I-360
sg22
I-514
sg23
I-355
sg24
I115
sg8
g454
sg25
I4
sg12
I2
sg26
F206.6408089648121
sg27
I0
sg28
I103
ssI104
(dp518
g20
I-660
sg21
I-240
sg22
I-615
sg23
I-214
sg24
I98
sg8
g454
sg25
I4
sg12
I3
sg26
F206.74912999058688
sg27
I2
sg28
I104
ssI105
(dp519
g20
I-660
sg21
I-240
sg22
I-615
sg23
I-227
sg24
I98
sg8
g454
sg25
I4
sg12
I3
sg26
F206.99913300331627
sg27
I3
sg28
I105
ssI106
(dp520
g20
I-900
sg21
I-240
sg22
I-865
sg23
I-259
sg24
I96
sg8
g454
sg25
I4
sg12
I3
sg26
F207.17420005329132
sg27
I1
sg28
I106
ssI107
(dp521
g20
I-900
sg21
I-240
sg22
I-861
sg23
I-263
sg24
I96
sg8
g454
sg25
I4
sg12
I3
sg26
F207.3407189846157
sg27
I1
sg28
I107
ssI108
(dp522
g20
I-900
sg21
I-240
sg22
I-857
sg23
I-260
sg24
I96
sg8
g454
sg25
I4
sg12
I3
sg26
F207.5074802733143
sg27
I1
sg28
I108
ssI110
(dp523
g20
I-660
sg21
I-120
sg22
I-717
sg23
I-139
sg24
I82
sg8
g454
sg25
I4
sg12
I3
sg26
F207.6739593696566
sg27
I0
sg28
I110
ssI168
(dp524
g20
I-900
sg21
I120
sg22
I-875
sg23
I111
sg24
I48
sg8
g454
sg25
I4
sg12
I3
sg26
F209.57381355353482
sg27
I1
sg28
I168
ssI124
(dp525
g20
I-660
sg21
I-360
sg22
I-636
sg23
I-353
sg24
I114
sg8
g454
sg25
I4
sg12
I3
sg26
F207.8657226333662
sg27
I0
sg28
I124
ssI127
(dp526
g20
I-660
sg21
I-360
sg22
I-639
sg23
I-349
sg24
I114
sg8
g454
sg25
I4
sg12
I3
sg26
F207.9739271669223
sg27
I0
sg28
I127
sssg151
I39
sg152
I1920
sg153
S'trial04.png'
p527
sg155
VTrial 9->trial04.png
p528
sg157
S'results\\P039\\trial_png\\trial04.png'
p529
sg159
g160
sg305
I4
sg306
I16
sg307
(lp530
I1
aI0
aI0
aI0
aI0
aI0
aI3
aI0
aI3
aI0
aI0
aI3
aI0
aI0
aI0
aI0
aI0
aI0
aI3
aI0
aI1
aI0
aI0
aI0
aI0
aI0
aI0
aI0
aI0
aI3
aI1
aI0
aI0
aI0
aI0
aI0
aI0
aI0
aI0
aI1
aI0
aI0
aI1
aI0
aI0
aI0
aI0
aI0
aI1
aI0
aI1
aI0
aI0
aI1
aI0
aI0
aI0
aI2
aI0
aI0
aI0
aI0
aI0
aI3
aI0
aI0
aI0
aI0
aI0
aI0
aI0
aI3
aI0
aI0
aI0
aI0
aI3
aI0
aI0
aI0
aI0
aI0
aI0
aI0
aI0
aI1
aI0
aI0
aI0
aI0
aI0
aI0
aI0
aI0
aI1
aI0
aI1
aI0
aI3
aI0
aI0
aI0
aI0
aI2
aI0
aI0
aI2
aI0
aI1
aI0
aI0
aI0
aI0
aI0
aI0
aI0
aI0
aI3
aI0
aI0
aI0
aI0
aI0
aI0
aI0
aI0
aI0
aI0
aI0
aI2
aI0
aI1
aI0
aI0
aI0
aI0
aI1
aI0
aI0
aI0
aI0
aI2
aI0
aI1
asg309
I9
sg310
I30
sg311
I1080
ssI5
(dp531
g2
I5
sg3
g4
sg5
I2
sg6
g7
sg8
VTrial 8
p532
sg10
g11
sg12
I10
sg13
g14
sg15
g16
sg17
(dp533
I1
(dp534
g20
I60
sg21
I0
sg22
I4
sg23
I2
sg24
I72
sg8
g532
sg25
I5
sg12
I0
sg26
F219.96422617700682
sg27
I0
sg28
I1
ssI2
(dp535
g20
I60
sg21
I0
sg22
I3
sg23
I5
sg24
I72
sg8
g532
sg25
I5
sg12
I0
sg26
F220.0558781036134
sg27
I0
sg28
I2
ssI3
(dp536
g20
I-60
sg21
I0
sg22
I-15
sg23
I17
sg24
I71
sg8
g532
sg25
I5
sg12
I0
sg26
F220.14748818675162
sg27
I0
sg28
I3
ssI4
(dp537
g20
I-60
sg21
I120
sg22
I-74
sg23
I87
sg24
I55
sg8
g532
sg25
I5
sg12
I1
sg26
F220.23932388987578
sg27
I2
sg28
I4
ssI5
(dp538
g20
I-60
sg21
I120
sg22
I-78
sg23
I94
sg24
I55
sg8
g532
sg25
I5
sg12
I1
sg26
F220.4808212969201
sg27
I3
sg28
I5
ssI6
(dp539
g20
I180
sg21
I0
sg22
I146
sg23
I-36
sg24
I73
sg8
g532
sg25
I5
sg12
I1
sg26
F220.64760936543826
sg27
I0
sg28
I6
ssI7
(dp540
g20
I180
sg21
I0
sg22
I152
sg23
I-36
sg24
I73
sg8
g532
sg25
I5
sg12
I1
sg26
F220.7392351817207
sg27
I0
sg28
I7
ssI8
(dp541
g20
I180
sg21
I-120
sg22
I171
sg23
I-100
sg24
I89
sg8
g532
sg25
I5
sg12
I2
sg26
F220.83074316679358
sg27
I2
sg28
I8
ssI9
(dp542
g20
I180
sg21
I-120
sg22
I172
sg23
I-97
sg24
I89
sg8
g532
sg25
I5
sg12
I2
sg26
F221.0807799890472
sg27
I3
sg28
I9
ssI10
(dp543
g20
I300
sg21
I-360
sg22
I318
sg23
I-347
sg24
I122
sg8
g532
sg25
I5
sg12
I2
sg26
F221.26413706715448
sg27
I1
sg28
I10
ssI11
(dp544
g20
I300
sg21
I-360
sg22
I325
sg23
I-348
sg24
I122
sg8
g532
sg25
I5
sg12
I2
sg26
F221.43918336276874
sg27
I1
sg28
I11
ssI12
(dp545
g20
I300
sg21
I-360
sg22
I314
sg23
I-356
sg24
I122
sg8
g532
sg25
I5
sg12
I2
sg26
F221.62249223719937
sg27
I1
sg28
I12
ssI13
(dp546
g20
I180
sg21
I-480
sg22
I211
sg23
I-430
sg24
I137
sg8
g532
sg25
I5
sg12
I3
sg26
F221.79744413394747
sg27
I2
sg28
I13
ssI14
(dp547
g20
I180
sg21
I-480
sg22
I207
sg23
I-433
sg24
I137
sg8
g532
sg25
I5
sg12
I3
sg26
F222.0473256332425
sg27
I3
sg28
I14
ssI15
(dp548
g20
I-60
sg21
I-240
sg22
I-52
sg23
I-242
sg24
I103
sg8
g532
sg25
I5
sg12
I3
sg26
F222.2055716085697
sg27
I1
sg28
I15
ssI16
(dp549
g20
I-60
sg21
I-240
sg22
I-48
sg23
I-241
sg24
I103
sg8
g532
sg25
I5
sg12
I3
sg26
F222.38058945062494
sg27
I1
sg28
I16
ssI17
(dp550
g20
I420
sg21
I0
sg22
I437
sg23
I-4
sg24
I75
sg8
g532
sg25
I5
sg12
I4
sg26
F222.53894388422486
sg27
I2
sg28
I17
ssI18
(dp551
g20
I420
sg21
I0
sg22
I441
sg23
I-9
sg24
I75
sg8
g532
sg25
I5
sg12
I4
sg26
F222.79734170113443
sg27
I3
sg28
I18
ssI19
(dp552
g20
I540
sg21
I0
sg22
I495
sg23
I38
sg24
I76
sg8
g532
sg25
I5
sg12
I4
sg26
F222.9639272472623
sg27
I0
sg28
I19
ssI20
(dp553
g20
I540
sg21
I120
sg22
I528
sg23
I93
sg24
I60
sg8
g532
sg25
I5
sg12
I4
sg26
F223.0555125590663
sg27
I1
sg28
I20
ssI21
(dp554
g20
I540
sg21
I120
sg22
I524
sg23
I100
sg24
I60
sg8
g532
sg25
I5
sg12
I4
sg26
F223.22233979307202
sg27
I1
sg28
I21
ssI22
(dp555
g20
I540
sg21
I120
sg22
I521
sg23
I104
sg24
I60
sg8
g532
sg25
I5
sg12
I4
sg26
F223.38882257163914
sg27
I1
sg28
I22
ssI23
(dp556
g20
I660
sg21
I-120
sg22
I676
sg23
I-67
sg24
I93
sg8
g532
sg25
I5
sg12
I5
sg26
F223.55559725024796
sg27
I2
sg28
I23
ssI24
(dp557
g20
I660
sg21
I-120
sg22
I679
sg23
I-68
sg24
I93
sg8
g532
sg25
I5
sg12
I5
sg26
F223.8055159065434
sg27
I3
sg28
I24
ssI25
(dp558
g20
I780
sg21
I0
sg22
I786
sg23
I-13
sg24
I78
sg8
g532
sg25
I5
sg12
I6
sg26
F223.97215702079848
sg27
I2
sg28
I25
ssI26
(dp559
g20
I780
sg21
I0
sg22
I794
sg23
I-19
sg24
I78
sg8
g532
sg25
I5
sg12
I6
sg26
F224.22212455026602
sg27
I3
sg28
I26
ssI27
(dp560
g20
I900
sg21
I-120
sg22
I895
sg23
I-111
sg24
I95
sg8
g532
sg25
I5
sg12
I6
sg26
F224.38873921944833
sg27
I1
sg28
I27
ssI28
(dp561
g20
I900
sg21
I-120
sg22
I901
sg23
I-105
sg24
I95
sg8
g532
sg25
I5
sg12
I6
sg26
F224.55539539735219
sg27
I1
sg28
I28
ssI29
(dp562
g20
I900
sg21
I-120
sg22
I897
sg23
I-114
sg24
I95
sg8
g532
sg25
I5
sg12
I6
sg26
F224.71378263623228
sg27
I1
sg28
I29
ssI30
(dp563
g20
I780
sg21
I-480
sg22
I762
sg23
I-477
sg24
I142
sg8
g532
sg25
I5
sg12
I6
sg26
F224.88039529692742
sg27
I1
sg28
I30
ssI31
(dp564
g20
I780
sg21
I-480
sg22
I766
sg23
I-473
sg24
I142
sg8
g532
sg25
I5
sg12
I6
sg26
F225.0470310552182
sg27
I1
sg28
I31
ssI32
(dp565
g20
I780
sg21
I-480
sg22
I766
sg23
I-482
sg24
I142
sg8
g532
sg25
I5
sg12
I6
sg26
F225.2136607880493
sg27
I1
sg28
I32
ssI33
(dp566
g20
I540
sg21
I-480
sg22
I544
sg23
I-465
sg24
I140
sg8
g532
sg25
I5
sg12
I7
sg26
F225.38038425025206
sg27
I2
sg28
I33
ssI34
(dp567
g20
I540
sg21
I-480
sg22
I536
sg23
I-459
sg24
I140
sg8
g532
sg25
I5
sg12
I7
sg26
F225.62197304343226
sg27
I3
sg28
I34
ssI35
(dp568
g20
I780
sg21
I360
sg22
I740
sg23
I392
sg24
I30
sg8
g532
sg25
I5
sg12
I7
sg26
F225.78020295086844
sg27
I1
sg28
I35
ssI36
(dp569
g20
I780
sg21
I360
sg22
I740
sg23
I387
sg24
I30
sg8
g532
sg25
I5
sg12
I7
sg26
F225.93846131186274
sg27
I1
sg28
I36
ssI37
(dp570
g20
I780
sg21
I360
sg22
I744
sg23
I386
sg24
I30
sg8
g532
sg25
I5
sg12
I7
sg26
F226.09684587276115
sg27
I1
sg28
I37
ssI38
(dp571
g20
I540
sg21
I480
sg22
I514
sg23
I494
sg24
I12
sg8
g532
sg25
I5
sg12
I8
sg26
F226.25514808571097
sg27
I2
sg28
I38
ssI39
(dp572
g20
I540
sg21
I480
sg22
I520
sg23
I495
sg24
I12
sg8
g532
sg25
I5
sg12
I8
sg26
F226.49685002363276
sg27
I3
sg28
I39
ssI40
(dp573
g20
I300
sg21
I480
sg22
I317
sg23
I479
sg24
I10
sg8
g532
sg25
I5
sg12
I9
sg26
F226.6634623495811
sg27
I2
sg28
I40
ssI41
(dp574
g20
I300
sg21
I480
sg22
I316
sg23
I476
sg24
I10
sg8
g532
sg25
I5
sg12
I9
sg26
F226.90514386788982
sg27
I3
sg28
I41
ssI42
(dp575
g20
I180
sg21
I240
sg22
I159
sg23
I266
sg24
I41
sg8
g532
sg25
I5
sg12
I9
sg26
F227.07182481712698
sg27
I1
sg28
I42
ssI43
(dp576
g20
I180
sg21
I240
sg22
I158
sg23
I267
sg24
I41
sg8
g532
sg25
I5
sg12
I9
sg26
F227.2383568036139
sg27
I1
sg28
I43
ssI44
(dp577
g20
I180
sg21
I240
sg22
I154
sg23
I264
sg24
I41
sg8
g532
sg25
I5
sg12
I9
sg26
F227.4050019348415
sg27
I1
sg28
I44
ssI45
(dp578
g20
I-60
sg21
I120
sg22
I-71
sg23
I123
sg24
I55
sg8
g532
sg25
I5
sg12
I9
sg26
F227.57177360072092
sg27
I3
sg28
I45
ssI46
(dp579
g20
I-60
sg21
I120
sg22
I-70
sg23
I120
sg24
I55
sg8
g532
sg25
I5
sg12
I9
sg26
F227.73837320625353
sg27
I3
sg28
I46
ssI47
(dp580
g20
I-60
sg21
I360
sg22
I-57
sg23
I316
sg24
I23
sg8
g532
sg25
I5
sg12
I9
sg26
F227.90501499000402
sg27
I1
sg28
I47
ssI48
(dp581
g20
I-60
sg21
I360
sg22
I-60
sg23
I355
sg24
I23
sg8
g532
sg25
I5
sg12
I9
sg26
F228.06331720295475
sg27
I1
sg28
I48
ssI49
(dp582
g20
I-60
sg21
I360
sg22
I-62
sg23
I362
sg24
I23
sg8
g532
sg25
I5
sg12
I9
sg26
F228.2215769029408
sg27
I1
sg28
I49
ssI50
(dp583
g20
I-300
sg21
I360
sg22
I-318
sg23
I379
sg24
I21
sg8
g532
sg25
I5
sg12
I10
sg26
F228.38819927132045
sg27
I2
sg28
I50
sssg151
I39
sg152
I1920
sg153
S'trial05.png'
p584
sg155
VTrial 8->trial05.png
p585
sg157
S'results\\P039\\trial_png\\trial05.png'
p586
sg159
g160
sg305
I5
sg306
I16
sg307
(lp587
I1
aI0
aI2
aI0
aI2
aI0
aI0
aI0
aI0
aI0
aI3
aI0
aI3
aI0
aI0
aI0
aI0
aI0
aI0
aI0
aI0
aI3
aI0
aI1
aI0
aI0
aI0
aI0
aI0
aI0
aI1
aI0
aI0
aI2
aI0
aI1
aI0
aI0
aI0
aI0
aI0
aI1
aI0
aI0
aI0
aI0
aI0
aI0
aI0
aI0
aI0
aI0
aI0
aI0
aI0
aI3
aI0
aI0
aI0
aI0
aI1
aI0
aI0
aI0
aI1
aI0
aI0
aI0
aI0
aI1
aI0
aI0
aI0
aI0
aI0
aI3
aI0
aI0
aI3
aI0
aI0
aI1
aI0
aI0
aI2
aI0
aI0
aI0
aI0
aI3
aI0
aI0
aI0
aI3
aI0
aI1
aI0
aI0
aI0
aI0
aI0
aI0
aI0
aI1
aI0
aI0
aI0
aI0
aI0
aI0
aI0
aI0
aI0
aI0
aI0
aI1
aI0
aI2
aI0
aI0
aI0
aI0
aI1
aI0
aI0
aI0
aI0
aI0
aI1
aI0
aI0
aI0
aI0
aI0
aI0
aI0
aI0
aI3
aI0
aI0
aI3
aI0
aI1
aI0
asg309
I9
sg310
I30
sg311
I1080
ssI6
(dp588
g2
I6
sg3
g4
sg5
I2
sg6
g7
sg8
VTrial 6
p589
sg10
g11
sg12
I10
sg13
g14
sg15
g16
sg17
(dp590
I1
(dp591
g20
I60
sg21
I0
sg22
I4
sg23
I4
sg24
I72
sg8
g589
sg25
I6
sg12
I0
sg26
F234.17919080755837
sg27
I0
sg28
I1
ssI2
(dp592
g20
I-60
sg21
I120
sg22
I-59
sg23
I76
sg24
I55
sg8
g589
sg25
I6
sg12
I0
sg26
F234.26248743022188
sg27
I0
sg28
I2
ssI3
(dp593
g20
I-60
sg21
I120
sg22
I-64
sg23
I131
sg24
I55
sg8
g589
sg25
I6
sg12
I0
sg26
F234.34579309107357
sg27
I0
sg28
I3
ssI4
(dp594
g20
I-60
sg21
I240
sg22
I-70
sg23
I225
sg24
I39
sg8
g589
sg25
I6
sg12
I1
sg26
F234.42910745536756
sg27
I2
sg28
I4
ssI5
(dp595
g20
I-60
sg21
I240
sg22
I-75
sg23
I240
sg24
I39
sg8
g589
sg25
I6
sg12
I1
sg26
F234.67926478681238
sg27
I3
sg28
I5
ssI6
(dp596
g20
I-60
sg21
I240
sg22
I-77
sg23
I243
sg24
I39
sg8
g589
sg25
I6
sg12
I1
sg26
F234.8375298427618
sg27
I3
sg28
I6
ssI7
(dp597
g20
I-60
sg21
I0
sg22
I-65
sg23
I18
sg24
I71
sg8
g589
sg25
I6
sg12
I2
sg26
F234.99587858565064
sg27
I2
sg28
I7
ssI8
(dp598
g20
I-60
sg21
I0
sg22
I-52
sg23
I30
sg24
I71
sg8
g589
sg25
I6
sg12
I2
sg26
F235.24578686476616
sg27
I3
sg28
I8
ssI9
(dp599
g20
I60
sg21
I360
sg22
I52
sg23
I361
sg24
I24
sg8
g589
sg25
I6
sg12
I2
sg26
F235.40411518804103
sg27
I1
sg28
I9
ssI10
(dp600
g20
I60
sg21
I360
sg22
I50
sg23
I365
sg24
I24
sg8
g589
sg25
I6
sg12
I2
sg26
F235.57071579781768
sg27
I1
sg28
I10
ssI11
(dp601
g20
I60
sg21
I360
sg22
I48
sg23
I363
sg24
I24
sg8
g589
sg25
I6
sg12
I2
sg26
F235.73734419165794
sg27
I1
sg28
I11
ssI12
(dp602
g20
I60
sg21
I360
sg22
I53
sg23
I331
sg24
I24
sg8
g589
sg25
I6
sg12
I2
sg26
F235.89573109579032
sg27
I1
sg28
I12
ssI13
(dp603
g20
I180
sg21
I0
sg22
I194
sg23
I-44
sg24
I73
sg8
g589
sg25
I6
sg12
I2
sg26
F236.0623142986833
sg27
I0
sg28
I13
ssI14
(dp604
g20
I180
sg21
I0
sg22
I199
sg23
I-46
sg24
I73
sg8
g589
sg25
I6
sg12
I2
sg26
F236.1538959282616
sg27
I0
sg28
I14
ssI15
(dp605
g20
I180
sg21
I0
sg22
I202
sg23
I-51
sg24
I73
sg8
g589
sg25
I6
sg12
I2
sg26
F236.24574669503545
sg27
I0
sg28
I15
ssI16
(dp606
g20
I180
sg21
I0
sg22
I203
sg23
I-49
sg24
I73
sg8
g589
sg25
I6
sg12
I2
sg26
F236.3372935108473
sg27
I0
sg28
I16
ssI17
(dp607
g20
I180
sg21
I0
sg22
I208
sg23
I-55
sg24
I73
sg8
g589
sg25
I6
sg12
I2
sg26
F236.42895581463563
sg27
I0
sg28
I17
ssI18
(dp608
g20
I180
sg21
I0
sg22
I206
sg23
I-52
sg24
I73
sg8
g589
sg25
I6
sg12
I2
sg26
F236.52058832587318
sg27
I0
sg28
I18
ssI19
(dp609
g20
I180
sg21
I-120
sg22
I169
sg23
I-101
sg24
I89
sg8
g589
sg25
I6
sg12
I2
sg26
F236.61232695214858
sg27
I1
sg28
I19
ssI20
(dp610
g20
I180
sg21
I-120
sg22
I169
sg23
I-97
sg24
I89
sg8
g589
sg25
I6
sg12
I2
sg26
F236.77893492637577
sg27
I1
sg28
I20
ssI21
(dp611
g20
I180
sg21
I-120
sg22
I169
sg23
I-99
sg24
I89
sg8
g589
sg25
I6
sg12
I2
sg26
F236.93727931754256
sg27
I1
sg28
I21
ssI22
(dp612
g20
I-300
sg21
I240
sg22
I-326
sg23
I245
sg24
I37
sg8
g589
sg25
I6
sg12
I2
sg26
F237.1039227750316
sg27
I1
sg28
I22
ssI23
(dp613
g20
I-300
sg21
I240
sg22
I-318
sg23
I240
sg24
I37
sg8
g589
sg25
I6
sg12
I2
sg26
F237.26224908982022
sg27
I1
sg28
I23
ssI24
(dp614
g20
I-300
sg21
I240
sg22
I-315
sg23
I241
sg24
I37
sg8
g589
sg25
I6
sg12
I2
sg26
F237.42901707347391
sg27
I1
sg28
I24
ssI25
(dp615
g20
I-420
sg21
I480
sg22
I-403
sg23
I444
sg24
I4
sg8
g589
sg25
I6
sg12
I3
sg26
F237.58725869708087
sg27
I2
sg28
I25
ssI26
(dp616
g20
I-420
sg21
I480
sg22
I-398
sg23
I457
sg24
I4
sg8
g589
sg25
I6
sg12
I3
sg26
F237.837154925277
sg27
I3
sg28
I26
ssI27
(dp617
g20
I-540
sg21
I240
sg22
I-546
sg23
I260
sg24
I35
sg8
g589
sg25
I6
sg12
I3
sg26
F237.99540491757853
sg27
I1
sg28
I27
ssI28
(dp618
g20
I-540
sg21
I240
sg22
I-552
sg23
I263
sg24
I35
sg8
g589
sg25
I6
sg12
I3
sg26
F238.17038192040764
sg27
I1
sg28
I28
ssI29
(dp619
g20
I-540
sg21
I240
sg22
I-555
sg23
I265
sg24
I35
sg8
g589
sg25
I6
sg12
I3
sg26
F238.32882405791952
sg27
I1
sg28
I29
ssI30
(dp620
g20
I-660
sg21
I240
sg22
I-667
sg23
I234
sg24
I34
sg8
g589
sg25
I6
sg12
I4
sg26
F238.4954129515245
sg27
I2
sg28
I30
ssI31
(dp621
g20
I-660
sg21
I240
sg22
I-665
sg23
I235
sg24
I34
sg8
g589
sg25
I6
sg12
I4
sg26
F238.74538416321775
sg27
I3
sg28
I31
ssI32
(dp622
g20
I-780
sg21
I480
sg22
I-777
sg23
I486
sg24
I1
sg8
g589
sg25
I6
sg12
I5
sg26
F238.91208988378912
sg27
I2
sg28
I32
ssI33
(dp623
g20
I-780
sg21
I480
sg22
I-784
sg23
I488
sg24
I1
sg8
g589
sg25
I6
sg12
I5
sg26
F239.16199950189548
sg27
I3
sg28
I33
ssI34
(dp624
g20
I-900
sg21
I240
sg22
I-905
sg23
I239
sg24
I32
sg8
g589
sg25
I6
sg12
I5
sg26
F239.3287095741871
sg27
I1
sg28
I34
ssI35
(dp625
g20
I-900
sg21
I240
sg22
I-899
sg23
I237
sg24
I32
sg8
g589
sg25
I6
sg12
I5
sg26
F239.4869994014707
sg27
I1
sg28
I35
ssI36
(dp626
g20
I-900
sg21
I240
sg22
I-899
sg23
I234
sg24
I32
sg8
g589
sg25
I6
sg12
I5
sg26
F239.6534908834792
sg27
I1
sg28
I36
ssI37
(dp627
g20
I-900
sg21
I240
sg22
I-898
sg23
I233
sg24
I32
sg8
g589
sg25
I6
sg12
I5
sg26
F239.82025351116863
sg27
I1
sg28
I37
ssI38
(dp628
g20
I-900
sg21
I0
sg22
I-901
sg23
I1
sg24
I64
sg8
g589
sg25
I6
sg12
I6
sg26
F239.98682198516144
sg27
I2
sg28
I38
ssI39
(dp629
g20
I-900
sg21
I0
sg22
I-907
sg23
I-2
sg24
I64
sg8
g589
sg25
I6
sg12
I6
sg26
F240.22849011355993
sg27
I3
sg28
I39
ssI40
(dp630
g20
I-900
sg21
I-360
sg22
I-924
sg23
I-336
sg24
I112
sg8
g589
sg25
I6
sg12
I6
sg26
F240.395156333896
sg27
I1
sg28
I40
ssI41
(dp631
g20
I-900
sg21
I-360
sg22
I-893
sg23
I-346
sg24
I112
sg8
g589
sg25
I6
sg12
I6
sg26
F240.56186439770136
sg27
I1
sg28
I41
ssI42
(dp632
g20
I-900
sg21
I-360
sg22
I-891
sg23
I-346
sg24
I112
sg8
g589
sg25
I6
sg12
I6
sg26
F240.72018000056232
sg27
I1
sg28
I42
ssI43
(dp633
g20
I-660
sg21
I-240
sg22
I-651
sg23
I-233
sg24
I98
sg8
g589
sg25
I6
sg12
I6
sg26
F240.8784407047915
sg27
I1
sg28
I43
ssI44
(dp634
g20
I-660
sg21
I-240
sg22
I-653
sg23
I-239
sg24
I98
sg8
g589
sg25
I6
sg12
I6
sg26
F241.04500214908057
sg27
I1
sg28
I44
ssI45
(dp635
g20
I-660
sg21
I-240
sg22
I-654
sg23
I-245
sg24
I98
sg8
g589
sg25
I6
sg12
I6
sg26
F241.2201237629397
sg27
I1
sg28
I45
ssI46
(dp636
g20
I-420
sg21
I-240
sg22
I-454
sg23
I-232
sg24
I100
sg8
g589
sg25
I6
sg12
I7
sg26
F241.3868579370701
sg27
I2
sg28
I46
ssI47
(dp637
g20
I-420
sg21
I-240
sg22
I-455
sg23
I-228
sg24
I100
sg8
g589
sg25
I6
sg12
I7
sg26
F241.63678630105096
sg27
I3
sg28
I47
ssI48
(dp638
g20
I-420
sg21
I-240
sg22
I-453
sg23
I-227
sg24
I100
sg8
g589
sg25
I6
sg12
I7
sg26
F241.79496833955727
sg27
I3
sg28
I48
ssI155
(dp639
g20
I-60
sg21
I-480
sg22
I-59
sg23
I-442
sg24
I135
sg8
g589
sg25
I6
sg12
I8
sg26
F243.85298682031134
sg27
I1
sg28
I155
ssI158
(dp640
g20
I-60
sg21
I0
sg22
I-47
sg23
I-37
sg24
I71
sg8
g589
sg25
I6
sg12
I8
sg26
F244.3280032564262
sg27
I3
sg28
I158
ssI56
(dp641
g20
I-420
sg21
I-360
sg22
I-446
sg23
I-363
sg24
I116
sg8
g589
sg25
I6
sg12
I7
sg26
F242.0199834366813
sg27
I0
sg28
I56
ssI159
(dp642
g20
I-60
sg21
I0
sg22
I-33
sg23
I-5
sg24
I71
sg8
g589
sg25
I6
sg12
I8
sg26
F244.48635333830498
sg27
I3
sg28
I159
ssI151
(dp643
g20
I-180
sg21
I-360
sg22
I-167
sg23
I-346
sg24
I118
sg8
g589
sg25
I6
sg12
I8
sg26
F243.2865082595663
sg27
I3
sg28
I151
ssI160
(dp644
g20
I180
sg21
I-120
sg22
I175
sg23
I-99
sg24
I89
sg8
g589
sg25
I6
sg12
I8
sg26
F244.64466894116595
sg27
I1
sg28
I160
ssI161
(dp645
g20
I180
sg21
I-120
sg22
I175
sg23
I-98
sg24
I89
sg8
g589
sg25
I6
sg12
I8
sg26
F244.81133482675432
sg27
I1
sg28
I161
ssI162
(dp646
g20
I180
sg21
I-120
sg22
I202
sg23
I-106
sg24
I89
sg8
g589
sg25
I6
sg12
I8
sg26
F244.97797694525252
sg27
I1
sg28
I162
ssI156
(dp647
g20
I-60
sg21
I0
sg22
I-49
sg23
I-42
sg24
I71
sg8
g589
sg25
I6
sg12
I8
sg26
F244.01140318224589
sg27
I3
sg28
I156
ssI163
(dp648
g20
I420
sg21
I-120
sg22
I420
sg23
I-115
sg24
I91
sg8
g589
sg25
I6
sg12
I9
sg26
F245.13638661223195
sg27
I2
sg28
I163
ssI164
(dp649
g20
I420
sg21
I-120
sg22
I412
sg23
I-116
sg24
I91
sg8
g589
sg25
I6
sg12
I9
sg26
F245.37792285001524
sg27
I3
sg28
I164
ssI152
(dp650
g20
I-60
sg21
I-360
sg22
I-110
sg23
I-392
sg24
I119
sg8
g589
sg25
I6
sg12
I8
sg26
F243.4531266109734
sg27
I0
sg28
I152
ssI165
(dp651
g20
I420
sg21
I-360
sg22
I434
sg23
I-308
sg24
I123
sg8
g589
sg25
I6
sg12
I9
sg26
F245.54461752391126
sg27
I1
sg28
I165
ssI166
(dp652
g20
I420
sg21
I-360
sg22
I436
sg23
I-306
sg24
I123
sg8
g589
sg25
I6
sg12
I9
sg26
F245.70295053365498
sg27
I1
sg28
I166
ssI167
(dp653
g20
I420
sg21
I-360
sg22
I421
sg23
I-341
sg24
I123
sg8
g589
sg25
I6
sg12
I9
sg26
F245.86117475037827
sg27
I1
sg28
I167
ssI154
(dp654
g20
I-60
sg21
I-480
sg22
I-56
sg23
I-442
sg24
I135
sg8
g589
sg25
I6
sg12
I8
sg26
F243.6946782471532
sg27
I1
sg28
I154
ssI157
(dp655
g20
I-60
sg21
I0
sg22
I-50
sg23
I-37
sg24
I71
sg8
g589
sg25
I6
sg12
I8
sg26
F244.1697914253691
sg27
I3
sg28
I157
ssI168
(dp656
g20
I420
sg21
I-360
sg22
I388
sg23
I-378
sg24
I123
sg8
g589
sg25
I6
sg12
I9
sg26
F246.0195017346623
sg27
I1
sg28
I168
ssI150
(dp657
g20
I-180
sg21
I-360
sg22
I-140
sg23
I-325
sg24
I118
sg8
g589
sg25
I6
sg12
I8
sg26
F243.12822211450748
sg27
I3
sg28
I150
ssI169
(dp658
g20
I420
sg21
I-360
sg22
I391
sg23
I-380
sg24
I123
sg8
g589
sg25
I6
sg12
I9
sg26
F246.17770419278258
sg27
I1
sg28
I169
ssI153
(dp659
g20
I-60
sg21
I-480
sg22
I-57
sg23
I-442
sg24
I135
sg8
g589
sg25
I6
sg12
I8
sg26
F243.53639879705042
sg27
I1
sg28
I153
ssI170
(dp660
g20
I300
sg21
I-480
sg22
I288
sg23
I-472
sg24
I138
sg8
g589
sg25
I6
sg12
I10
sg26
F246.33608105448184
sg27
I2
sg28
I170
ssI149
(dp661
g20
I-180
sg21
I-360
sg22
I-155
sg23
I-330
sg24
I118
sg8
g589
sg25
I6
sg12
I8
sg26
F242.87818797023647
sg27
I2
sg28
I149
sssg151
I39
sg152
I1920
sg153
S'trial06.png'
p662
sg155
VTrial 6->trial06.png
p663
sg157
S'results\\P039\\trial_png\\trial06.png'
p664
sg159
g160
sg305
I6
sg306
I16
sg307
(lp665
I0
aI3
aI0
aI0
aI3
aI0
aI0
aI0
aI0
aI0
aI0
aI0
aI0
aI0
aI0
aI1
aI0
aI0
aI0
aI0
aI0
aI0
aI0
aI0
aI1
aI0
aI2
aI0
aI0
aI1
aI0
aI0
aI1
aI0
aI3
aI1
aI0
aI1
aI0
aI3
aI0
aI0
aI0
aI1
aI0
aI0
aI0
aI2
aI0
aI0
aI0
aI0
aI0
aI0
aI0
aI0
aI0
aI0
aI0
aI0
aI0
aI0
aI0
aI0
aI3
aI0
aI0
aI0
aI0
aI0
aI0
aI3
aI0
aI0
aI0
aI0
aI0
aI2
aI0
aI1
aI0
aI0
aI0
aI0
aI0
aI0
aI0
aI0
aI0
aI1
aI0
aI3
aI0
aI0
aI0
aI0
aI0
aI0
aI1
aI0
aI3
aI0
aI0
aI0
aI0
aI0
aI0
aI0
aI0
aI1
aI0
aI2
aI1
aI0
aI0
aI0
aI0
aI0
aI3
aI0
aI0
aI0
aI0
aI1
aI0
aI0
aI0
aI0
aI0
aI0
aI0
aI2
aI0
aI0
aI0
aI1
aI0
aI0
aI3
aI0
aI0
aI0
aI0
aI1
asg309
I9
sg310
I30
sg311
I1080
ssI7
(dp666
g2
I7
sg3
g4
sg5
I2
sg6
g7
sg8
VTrial 7
p667
sg10
g11
sg12
I10
sg13
g14
sg15
g16
sg17
(dp668
I1
(dp669
g20
I-60
sg21
I0
sg22
I-2
sg23
I-4
sg24
I71
sg8
g667
sg25
I7
sg12
I0
sg26
F251.70207483352988
sg27
I0
sg28
I1
ssI2
(dp670
g20
I-60
sg21
I0
sg22
I-71
sg23
I40
sg24
I71
sg8
g667
sg25
I7
sg12
I0
sg26
F251.79388543057212
sg27
I0
sg28
I2
ssI3
(dp671
g20
I-60
sg21
I0
sg22
I-66
sg23
I43
sg24
I71
sg8
g667
sg25
I7
sg12
I0
sg26
F251.8770250565385
sg27
I0
sg28
I3
ssI4
(dp672
g20
I-180
sg21
I0
sg22
I-177
sg23
I20
sg24
I70
sg8
g667
sg25
I7
sg12
I1
sg26
F251.9688795055372
sg27
I2
sg28
I4
ssI5
(dp673
g20
I-180
sg21
I0
sg22
I-192
sg23
I17
sg24
I70
sg8
g667
sg25
I7
sg12
I1
sg26
F252.21881791195028
sg27
I3
sg28
I5
ssI6
(dp674
g20
I-60
sg21
I-120
sg22
I-93
sg23
I-141
sg24
I87
sg8
g667
sg25
I7
sg12
I1
sg26
F252.38537333078057
sg27
I1
sg28
I6
ssI7
(dp675
g20
I-60
sg21
I-120
sg22
I-97
sg23
I-142
sg24
I87
sg8
g667
sg25
I7
sg12
I1
sg26
F252.55204323334146
sg27
I1
sg28
I7
ssI8
(dp676
g20
I60
sg21
I-240
sg22
I84
sg23
I-199
sg24
I104
sg8
g667
sg25
I7
sg12
I1
sg26
F252.72707446530694
sg27
I0
sg28
I8
ssI9
(dp677
g20
I180
sg21
I-240
sg22
I178
sg23
I-250
sg24
I105
sg8
g667
sg25
I7
sg12
I2
sg26
F252.81857910290273
sg27
I2
sg28
I9
ssI10
(dp678
g20
I180
sg21
I-240
sg22
I179
sg23
I-249
sg24
I105
sg8
g667
sg25
I7
sg12
I2
sg26
F253.0688147653218
sg27
I3
sg28
I10
ssI11
(dp679
g20
I180
sg21
I-480
sg22
I182
sg23
I-439
sg24
I137
sg8
g667
sg25
I7
sg12
I2
sg26
F253.24359995768737
sg27
I1
sg28
I11
ssI12
(dp680
g20
I180
sg21
I-480
sg22
I181
sg23
I-449
sg24
I137
sg8
g667
sg25
I7
sg12
I2
sg26
F253.41025044487924
sg27
I1
sg28
I12
ssI13
(dp681
g20
I180
sg21
I-480
sg22
I175
sg23
I-448
sg24
I137
sg8
g667
sg25
I7
sg12
I2
sg26
F253.5852321341772
sg27
I1
sg28
I13
ssI14
(dp682
g20
I180
sg21
I-480
sg22
I229
sg23
I-453
sg24
I137
sg8
g667
sg25
I7
sg12
I2
sg26
F253.75188429510763
sg27
I1
sg28
I14
ssI15
(dp683
g20
I420
sg21
I-240
sg22
I373
sg23
I-293
sg24
I107
sg8
g667
sg25
I7
sg12
I2
sg26
F253.9269215525328
sg27
I1
sg28
I15
ssI16
(dp684
g20
I420
sg21
I-240
sg22
I419
sg23
I-282
sg24
I107
sg8
g667
sg25
I7
sg12
I2
sg26
F254.09358877711293
sg27
I1
sg28
I16
ssI17
(dp685
g20
I420
sg21
I-240
sg22
I433
sg23
I-296
sg24
I107
sg8
g667
sg25
I7
sg12
I2
sg26
F254.268533978905
sg27
I1
sg28
I17
ssI18
(dp686
g20
I540
sg21
I-480
sg22
I557
sg23
I-469
sg24
I140
sg8
g667
sg25
I7
sg12
I3
sg26
F254.43512789372653
sg27
I2
sg28
I18
ssI19
(dp687
g20
I540
sg21
I-480
sg22
I552
sg23
I-473
sg24
I140
sg8
g667
sg25
I7
sg12
I3
sg26
F254.68516270749296
sg27
I3
sg28
I19
ssI20
(dp688
g20
I780
sg21
I-480
sg22
I761
sg23
I-480
sg24
I142
sg8
g667
sg25
I7
sg12
I3
sg26
F254.86842237400379
sg27
I1
sg28
I20
ssI21
(dp689
g20
I780
sg21
I-480
sg22
I762
sg23
I-481
sg24
I142
sg8
g667
sg25
I7
sg12
I3
sg26
F255.03498649627545
sg27
I1
sg28
I21
ssI22
(dp690
g20
I780
sg21
I-360
sg22
I785
sg23
I-340
sg24
I126
sg8
g667
sg25
I7
sg12
I3
sg26
F255.21007731334066
sg27
I0
sg28
I22
ssI23
(dp691
g20
I780
sg21
I-240
sg22
I784
sg23
I-218
sg24
I110
sg8
g667
sg25
I7
sg12
I4
sg26
F255.30176104098518
sg27
I2
sg28
I23
ssI24
(dp692
g20
I780
sg21
I-240
sg22
I787
sg23
I-216
sg24
I110
sg8
g667
sg25
I7
sg12
I4
sg26
F255.5517064771011
sg27
I3
sg28
I24
ssI25
(dp693
g20
I900
sg21
I-120
sg22
I884
sg23
I-146
sg24
I95
sg8
g667
sg25
I7
sg12
I4
sg26
F255.71836298975268
sg27
I1
sg28
I25
ssI26
(dp694
g20
I900
sg21
I-120
sg22
I886
sg23
I-143
sg24
I95
sg8
g667
sg25
I7
sg12
I4
sg26
F255.88498368439468
sg27
I1
sg28
I26
ssI27
(dp695
g20
I900
sg21
I-120
sg22
I892
sg23
I-139
sg24
I95
sg8
g667
sg25
I7
sg12
I4
sg26
F256.0516947609294
sg27
I1
sg28
I27
ssI28
(dp696
g20
I660
sg21
I0
sg22
I667
sg23
I-4
sg24
I77
sg8
g667
sg25
I7
sg12
I5
sg26
F256.2183017309135
sg27
I2
sg28
I28
ssI29
(dp697
g20
I660
sg21
I0
sg22
I671
sg23
I-4
sg24
I77
sg8
g667
sg25
I7
sg12
I5
sg26
F256.4682046540647
sg27
I3
sg28
I29
ssI30
(dp698
g20
I420
sg21
I0
sg22
I428
sg23
I9
sg24
I75
sg8
g667
sg25
I7
sg12
I6
sg26
F256.6348494505446
sg27
I2
sg28
I30
ssI31
(dp699
g20
I420
sg21
I0
sg22
I427
sg23
I5
sg24
I75
sg8
g667
sg25
I7
sg12
I6
sg26
F256.88490836614983
sg27
I3
sg28
I31
ssI32
(dp700
g20
I900
sg21
I240
sg22
I870
sg23
I213
sg24
I47
sg8
g667
sg25
I7
sg12
I7
sg26
F257.0515588533417
sg27
I2
sg28
I32
ssI33
(dp701
g20
I900
sg21
I240
sg22
I858
sg23
I244
sg24
I47
sg8
g667
sg25
I7
sg12
I7
sg26
F257.30160036206325
sg27
I3
sg28
I33
ssI34
(dp702
g20
I660
sg21
I480
sg22
I697
sg23
I422
sg24
I13
sg8
g667
sg25
I7
sg12
I7
sg26
F257.4681517639192
sg27
I1
sg28
I34
ssI35
(dp703
g20
I660
sg21
I480
sg22
I645
sg23
I472
sg24
I13
sg8
g667
sg25
I7
sg12
I7
sg26
F257.63472793711026
sg27
I1
sg28
I35
ssI36
(dp704
g20
I660
sg21
I480
sg22
I650
sg23
I474
sg24
I13
sg8
g667
sg25
I7
sg12
I7
sg26
F257.79305860362
sg27
I1
sg28
I36
ssI37
(dp705
g20
I420
sg21
I360
sg22
I392
sg23
I392
sg24
I27
sg8
g667
sg25
I7
sg12
I7
sg26
F257.9598362949582
sg27
I1
sg28
I37
ssI38
(dp706
g20
I420
sg21
I360
sg22
I398
sg23
I388
sg24
I27
sg8
g667
sg25
I7
sg12
I7
sg26
F258.1181344909355
sg27
I1
sg28
I38
ssI39
(dp707
g20
I420
sg21
I360
sg22
I395
sg23
I392
sg24
I27
sg8
g667
sg25
I7
sg12
I7
sg26
F258.2847093251348
sg27
I1
sg28
I39
ssI40
(dp708
g20
I180
sg21
I360
sg22
I177
sg23
I375
sg24
I25
sg8
g667
sg25
I7
sg12
I8
sg26
F258.44308484784324
sg27
I2
sg28
I40
ssI41
(dp709
g20
I180
sg21
I360
sg22
I180
sg23
I380
sg24
I25
sg8
g667
sg25
I7
sg12
I8
sg26
F258.684653556159
sg27
I3
sg28
I41
ssI42
(dp710
g20
I-60
sg21
I240
sg22
I-70
sg23
I219
sg24
I39
sg8
g667
sg25
I7
sg12
I9
sg26
F258.8513723318929
sg27
I2
sg28
I42
ssI43
(dp711
g20
I-60
sg21
I240
sg22
I-68
sg23
I238
sg24
I39
sg8
g667
sg25
I7
sg12
I9
sg26
F259.10137467512686
sg27
I3
sg28
I43
ssI44
(dp712
g20
I-60
sg21
I240
sg22
I-68
sg23
I240
sg24
I39
sg8
g667
sg25
I7
sg12
I9
sg26
F259.2678085805219
sg27
I3
sg28
I44
ssI45
(dp713
g20
I-180
sg21
I480
sg22
I-178
sg23
I476
sg24
I6
sg8
g667
sg25
I7
sg12
I10
sg26
F259.43457924215727
sg27
I2
sg28
I45
sssg151
I39
sg152
I1920
sg153
S'trial07.png'
p714
sg155
VTrial 7->trial07.png
p715
sg157
S'results\\P039\\trial_png\\trial07.png'
p716
sg159
g160
sg305
I7
sg306
I16
sg307
(lp717
I1
aI0
aI2
aI0
aI0
aI0
aI3
aI0
aI0
aI0
aI0
aI0
aI0
aI1
aI0
aI0
aI0
aI0
aI0
aI0
aI0
aI0
aI0
aI0
aI0
aI3
aI0
aI1
aI0
aI0
aI0
aI0
aI0
aI0
aI0
aI0
aI0
aI1
aI0
aI3
aI0
aI0
aI0
aI0
aI0
aI0
aI0
aI3
aI1
aI0
aI1
aI0
aI2
aI0
aI0
aI0
aI1
aI0
aI0
aI0
aI0
aI0
aI0
aI0
aI0
aI0
aI0
aI0
aI0
aI0
aI3
aI0
aI0
aI0
aI0
aI3
aI0
aI3
aI0
aI0
aI0
aI2
aI0
aI2
aI0
aI0
aI0
aI1
aI0
aI0
aI0
aI0
aI0
aI0
aI0
aI1
aI0
aI0
aI0
aI0
aI0
aI0
aI0
aI0
aI0
aI3
aI0
aI1
aI0
aI0
aI3
aI0
aI1
aI0
aI1
aI0
aI1
aI0
aI2
aI0
aI0
aI0
aI0
aI0
aI0
aI0
aI0
aI0
aI0
aI0
aI0
aI0
aI0
aI0
aI0
aI0
aI0
aI1
aI0
aI0
aI3
aI0
aI1
aI0
asg309
I9
sg310
I30
sg311
I1080
ssI8
(dp718
g2
I8
sg3
g4
sg5
I2
sg6
g7
sg8
VTrial 3
p719
sg10
g11
sg12
I10
sg13
g14
sg15
g16
sg17
(dp720
I1
(dp721
g20
I-60
sg21
I0
sg22
I-4
sg23
I1
sg24
I71
sg8
g719
sg25
I8
sg12
I0
sg26
F264.9421321557347
sg27
I0
sg28
I1
ssI2
(dp722
g20
I-60
sg21
I0
sg22
I-9
sg23
I9
sg24
I71
sg8
g719
sg25
I8
sg12
I0
sg26
F265.0337907772973
sg27
I0
sg28
I2
ssI3
(dp723
g20
I-60
sg21
I0
sg22
I-10
sg23
I8
sg24
I71
sg8
g719
sg25
I8
sg12
I0
sg26
F265.11716171396165
sg27
I0
sg28
I3
ssI4
(dp724
g20
I-180
sg21
I0
sg22
I-188
sg23
I31
sg24
I70
sg8
g719
sg25
I8
sg12
I1
sg26
F265.2088829333543
sg27
I2
sg28
I4
ssI5
(dp725
g20
I-180
sg21
I0
sg22
I-191
sg23
I31
sg24
I70
sg8
g719
sg25
I8
sg12
I1
sg26
F265.4587416698023
sg27
I3
sg28
I5
ssI6
(dp726
g20
I-420
sg21
I0
sg22
I-463
sg23
I6
sg24
I68
sg8
g719
sg25
I8
sg12
I2
sg26
F265.6171670699259
sg27
I2
sg28
I6
ssI7
(dp727
g20
I-420
sg21
I0
sg22
I-446
sg23
I18
sg24
I68
sg8
g719
sg25
I8
sg12
I2
sg26
F265.8670365183016
sg27
I3
sg28
I7
ssI8
(dp728
g20
I-300
sg21
I240
sg22
I-334
sg23
I254
sg24
I37
sg8
g719
sg25
I8
sg12
I3
sg26
F266.0338664302899
sg27
I2
sg28
I8
ssI9
(dp729
g20
I-300
sg21
I240
sg22
I-329
sg23
I254
sg24
I37
sg8
g719
sg25
I8
sg12
I3
sg26
F266.283873125245
sg27
I3
sg28
I9
ssI10
(dp730
g20
I-420
sg21
I480
sg22
I-428
sg23
I466
sg24
I4
sg8
g719
sg25
I8
sg12
I3
sg26
F266.4587212501892
sg27
I1
sg28
I10
ssI11
(dp731
g20
I-420
sg21
I480
sg22
I-421
sg23
I459
sg24
I4
sg8
g719
sg25
I8
sg12
I3
sg26
F266.63376319408235
sg27
I1
sg28
I11
ssI12
(dp732
g20
I-420
sg21
I480
sg22
I-420
sg23
I465
sg24
I4
sg8
g719
sg25
I8
sg12
I3
sg26
F266.80042305421193
sg27
I1
sg28
I12
ssI13
(dp733
g20
I-540
sg21
I240
sg22
I-554
sg23
I232
sg24
I35
sg8
g719
sg25
I8
sg12
I3
sg26
F266.95861111817794
sg27
I1
sg28
I13
ssI14
(dp734
g20
I-540
sg21
I240
sg22
I-549
sg23
I227
sg24
I35
sg8
g719
sg25
I8
sg12
I3
sg26
F267.12532989391184
sg27
I1
sg28
I14
ssI15
(dp735
g20
I-660
sg21
I360
sg22
I-648
sg23
I336
sg24
I18
sg8
g719
sg25
I8
sg12
I4
sg26
F267.2835751997436
sg27
I2
sg28
I15
ssI16
(dp736
g20
I-660
sg21
I360
sg22
I-646
sg23
I339
sg24
I18
sg8
g719
sg25
I8
sg12
I4
sg26
F267.533587250663
sg27
I3
sg28
I16
ssI17
(dp737
g20
I-660
sg21
I360
sg22
I-648
sg23
I348
sg24
I18
sg8
g719
sg25
I8
sg12
I4
sg26
F267.70035088259556
sg27
I3
sg28
I17
ssI18
(dp738
g20
I-900
sg21
I480
sg22
I-878
sg23
I460
sg24
I0
sg8
g719
sg25
I8
sg12
I4
sg26
F267.8669083099121
sg27
I1
sg28
I18
ssI19
(dp739
g20
I-900
sg21
I480
sg22
I-880
sg23
I456
sg24
I0
sg8
g719
sg25
I8
sg12
I4
sg26
F268.0252272602502
sg27
I1
sg28
I19
ssI20
(dp740
g20
I-900
sg21
I360
sg22
I-921
sg23
I361
sg24
I16
sg8
g719
sg25
I8
sg12
I4
sg26
F268.18354286311114
sg27
I0
sg28
I20
ssI21
(dp741
g20
I-900
sg21
I240
sg22
I-903
sg23
I259
sg24
I32
sg8
g719
sg25
I8
sg12
I5
sg26
F268.275197802448
sg27
I2
sg28
I21
ssI22
(dp742
g20
I-900
sg21
I240
sg22
I-893
sg23
I261
sg24
I32
sg8
g719
sg25
I8
sg12
I5
sg26
F268.5168441722426
sg27
I3
sg28
I22
ssI23
(dp743
g20
I-780
sg21
I0
sg22
I-808
sg23
I59
sg24
I65
sg8
g719
sg25
I8
sg12
I5
sg26
F268.6750898128221
sg27
I1
sg28
I23
ssI24
(dp744
g20
I-780
sg21
I0
sg22
I-771
sg23
I9
sg24
I65
sg8
g719
sg25
I8
sg12
I5
sg26
F268.8334750432159
sg27
I1
sg28
I24
ssI25
(dp745
g20
I-780
sg21
I0
sg22
I-767
sg23
I7
sg24
I65
sg8
g719
sg25
I8
sg12
I5
sg26
F268.9918435362215
sg27
I1
sg28
I25
ssI26
(dp746
g20
I-900
sg21
I-240
sg22
I-892
sg23
I-249
sg24
I96
sg8
g719
sg25
I8
sg12
I6
sg26
F269.15015813483933
sg27
I2
sg28
I26
ssI27
(dp747
g20
I-900
sg21
I-240
sg22
I-885
sg23
I-252
sg24
I96
sg8
g719
sg25
I8
sg12
I6
sg26
F269.3917944622008
sg27
I3
sg28
I27
ssI28
(dp748
g20
I-780
sg21
I-360
sg22
I-721
sg23
I-308
sg24
I113
sg8
g719
sg25
I8
sg12
I6
sg26
F269.55010069212403
sg27
I1
sg28
I28
ssI29
(dp749
g20
I-780
sg21
I-360
sg22
I-728
sg23
I-323
sg24
I113
sg8
g719
sg25
I8
sg12
I6
sg26
F269.70828540861294
sg27
I1
sg28
I29
ssI30
(dp750
g20
I-780
sg21
I-360
sg22
I-733
sg23
I-327
sg24
I113
sg8
g719
sg25
I8
sg12
I6
sg26
F269.86665189313226
sg27
I1
sg28
I30
ssI31
(dp751
g20
I-540
sg21
I-240
sg22
I-507
sg23
I-228
sg24
I99
sg8
g719
sg25
I8
sg12
I7
sg26
F270.0249082456403
sg27
I2
sg28
I31
ssI32
(dp752
g20
I-540
sg21
I-240
sg22
I-506
sg23
I-234
sg24
I99
sg8
g719
sg25
I8
sg12
I7
sg26
F270.27488247006295
sg27
I3
sg28
I32
ssI33
(dp753
g20
I-540
sg21
I-360
sg22
I-504
sg23
I-359
sg24
I115
sg8
g719
sg25
I8
sg12
I7
sg26
F270.44161932217594
sg27
I0
sg28
I33
ssI34
(dp754
g20
I-540
sg21
I-360
sg22
I-511
sg23
I-381
sg24
I115
sg8
g719
sg25
I8
sg12
I7
sg26
F270.52485167326995
sg27
I0
sg28
I34
ssI35
(dp755
g20
I-540
sg21
I-360
sg22
I-508
sg23
I-374
sg24
I115
sg8
g719
sg25
I8
sg12
I7
sg26
F270.6166093801676
sg27
I0
sg28
I35
ssI36
(dp756
g20
I-540
sg21
I-360
sg22
I-505
sg23
I-367
sg24
I115
sg8
g719
sg25
I8
sg12
I7
sg26
F270.699844743991
sg27
I0
sg28
I36
ssI37
(dp757
g20
I-540
sg21
I-360
sg22
I-496
sg23
I-368
sg24
I115
sg8
g719
sg25
I8
sg12
I7
sg26
F270.7831540870693
sg27
I0
sg28
I37
ssI38
(dp758
g20
I-540
sg21
I-360
sg22
I-498
sg23
I-360
sg24
I115
sg8
g719
sg25
I8
sg12
I7
sg26
F270.86660268521246
sg27
I0
sg28
I38
ssI42
(dp759
g20
I-420
sg21
I-360
sg22
I-453
sg23
I-380
sg24
I116
sg8
g719
sg25
I8
sg12
I7
sg26
F270.9748641258866
sg27
I0
sg28
I42
ssI47
(dp760
g20
I-420
sg21
I-360
sg22
I-444
sg23
I-406
sg24
I116
sg8
g719
sg25
I8
sg12
I7
sg26
F271.0915474853073
sg27
I0
sg28
I47
ssI48
(dp761
g20
I-300
sg21
I-360
sg22
I-282
sg23
I-317
sg24
I117
sg8
g719
sg25
I8
sg12
I7
sg26
F271.17472962423835
sg27
I1
sg28
I48
ssI49
(dp762
g20
I-300
sg21
I-360
sg22
I-276
sg23
I-319
sg24
I117
sg8
g719
sg25
I8
sg12
I7
sg26
F271.34155351076697
sg27
I1
sg28
I49
ssI50
(dp763
g20
I-300
sg21
I-360
sg22
I-270
sg23
I-315
sg24
I117
sg8
g719
sg25
I8
sg12
I7
sg26
F271.4998681093848
sg27
I1
sg28
I50
ssI51
(dp764
g20
I-60
sg21
I-240
sg22
I-49
sg23
I-236
sg24
I103
sg8
g719
sg25
I8
sg12
I7
sg26
F271.6664787615937
sg27
I1
sg28
I51
ssI52
(dp765
g20
I-60
sg21
I-240
sg22
I-43
sg23
I-238
sg24
I103
sg8
g719
sg25
I8
sg12
I7
sg26
F271.824698291849
sg27
I1
sg28
I52
ssI53
(dp766
g20
I60
sg21
I-240
sg22
I74
sg23
I-257
sg24
I104
sg8
g719
sg25
I8
sg12
I7
sg26
F271.9832606038044
sg27
I0
sg28
I53
ssI54
(dp767
g20
I180
sg21
I-240
sg22
I204
sg23
I-255
sg24
I105
sg8
g719
sg25
I8
sg12
I8
sg26
F272.0662767078493
sg27
I2
sg28
I54
ssI55
(dp768
g20
I180
sg21
I-240
sg22
I204
sg23
I-255
sg24
I105
sg8
g719
sg25
I8
sg12
I8
sg26
F272.30797128132053
sg27
I3
sg28
I55
ssI56
(dp769
g20
I300
sg21
I-360
sg22
I311
sg23
I-363
sg24
I122
sg8
g719
sg25
I8
sg12
I9
sg26
F272.4745752385743
sg27
I2
sg28
I56
ssI57
(dp770
g20
I300
sg21
I-360
sg22
I318
sg23
I-359
sg24
I122
sg8
g719
sg25
I8
sg12
I9
sg26
F272.7246217685124
sg27
I3
sg28
I57
ssI58
(dp771
g20
I180
sg21
I0
sg22
I187
sg23
I-39
sg24
I73
sg8
g719
sg25
I8
sg12
I9
sg26
F272.89137937498526
sg27
I1
sg28
I58
ssI59
(dp772
g20
I180
sg21
I0
sg22
I181
sg23
I-7
sg24
I73
sg8
g719
sg25
I8
sg12
I9
sg26
F273.05788859862514
sg27
I1
sg28
I59
ssI60
(dp773
g20
I180
sg21
I0
sg22
I182
sg23
I-9
sg24
I73
sg8
g719
sg25
I8
sg12
I9
sg26
F273.21627315952355
sg27
I1
sg28
I60
ssI61
(dp774
g20
I420
sg21
I-120
sg22
I455
sg23
I-103
sg24
I91
sg8
g719
sg25
I8
sg12
I9
sg26
F273.37450942716623
sg27
I1
sg28
I61
ssI62
(dp775
g20
I420
sg21
I-120
sg22
I458
sg23
I-100
sg24
I91
sg8
g719
sg25
I8
sg12
I9
sg26
F273.53289131008205
sg27
I1
sg28
I62
ssI63
(dp776
g20
I300
sg21
I360
sg22
I310
sg23
I354
sg24
I26
sg8
g719
sg25
I8
sg12
I10
sg26
F273.6912397182223
sg27
I2
sg28
I63
sssg151
I39
sg152
I1920
sg153
S'trial08.png'
p777
sg155
VTrial 3->trial08.png
p778
sg157
S'results\\P039\\trial_png\\trial08.png'
p779
sg159
g160
sg305
I8
sg306
I16
sg307
(lp780
I1
aI0
aI0
aI0
aI1
aI0
aI0
aI0
aI1
aI0
aI0
aI0
aI0
aI0
aI1
aI0
aI0
aI0
aI3
aI0
aI0
aI0
aI0
aI0
aI0
aI0
aI3
aI0
aI0
aI0
aI0
aI0
aI3
aI0
aI0
aI1
aI0
aI3
aI0
aI1
aI0
aI0
aI0
aI0
aI1
aI0
aI0
aI2
aI0
aI0
aI0
aI0
aI0
aI0
aI0
aI0
aI0
aI0
aI0
aI0
aI0
aI0
aI0
aI0
aI0
aI1
aI0
aI0
aI3
aI0
aI3
aI0
aI0
aI1
aI0
aI0
aI0
aI0
aI2
aI0
aI0
aI0
aI0
aI0
aI0
aI0
aI0
aI0
aI0
aI0
aI0
aI1
aI0
aI2
aI0
aI1
aI3
aI0
aI0
aI3
aI0
aI0
aI0
aI1
aI0
aI3
aI0
aI0
aI0
aI0
aI0
aI0
aI0
aI1
aI0
aI0
aI0
aI1
aI0
aI0
aI0
aI0
aI3
aI0
aI0
aI1
aI0
aI0
aI0
aI0
aI0
aI2
aI0
aI0
aI0
aI0
aI0
aI0
aI0
aI0
aI0
aI0
aI0
aI2
asg309
I9
sg310
I30
sg311
I1080
ssI9
(dp781
g2
I9
sg3
g4
sg5
I2
sg6
g7
sg8
VTrial 4
p782
sg10
g11
sg12
I10
sg13
g14
sg15
g16
sg17
(dp783
I1
(dp784
g20
I-60
sg21
I0
sg22
I-6
sg23
I-5
sg24
I71
sg8
g782
sg25
I9
sg12
I0
sg26
F278.31566445420685
sg27
I0
sg28
I1
ssI2
(dp785
g20
I-60
sg21
I0
sg22
I-11
sg23
I-4
sg24
I71
sg8
g782
sg25
I9
sg12
I0
sg26
F278.3989808269871
sg27
I0
sg28
I2
ssI3
(dp786
g20
I-60
sg21
I0
sg22
I-8
sg23
I-6
sg24
I71
sg8
g782
sg25
I9
sg12
I0
sg26
F278.4822091611086
sg27
I0
sg28
I3
ssI4
(dp787
g20
I-60
sg21
I-120
sg22
I-55
sg23
I-104
sg24
I87
sg8
g782
sg25
I9
sg12
I1
sg26
F278.58219530255155
sg27
I2
sg28
I4
ssI5
(dp788
g20
I-60
sg21
I-120
sg22
I-61
sg23
I-104
sg24
I87
sg8
g782
sg25
I9
sg12
I1
sg26
F278.832222082372
sg27
I3
sg28
I5
ssI6
(dp789
g20
I180
sg21
I-120
sg22
I148
sg23
I-112
sg24
I89
sg8
g782
sg25
I9
sg12
I2
sg26
F279.00727674667996
sg27
I2
sg28
I6
ssI7
(dp790
g20
I180
sg21
I-120
sg22
I148
sg23
I-113
sg24
I89
sg8
g782
sg25
I9
sg12
I2
sg26
F279.24886185763535
sg27
I3
sg28
I7
ssI8
(dp791
g20
I180
sg21
I-360
sg22
I178
sg23
I-345
sg24
I121
sg8
g782
sg25
I9
sg12
I2
sg26
F279.4155478280891
sg27
I1
sg28
I8
ssI9
(dp792
g20
I180
sg21
I-360
sg22
I183
sg23
I-351
sg24
I121
sg8
g782
sg25
I9
sg12
I2
sg26
F279.5906265942358
sg27
I1
sg28
I9
ssI10
(dp793
g20
I-180
sg21
I-360
sg22
I-161
sg23
I-362
sg24
I118
sg8
g782
sg25
I9
sg12
I3
sg26
F279.7570313765764
sg27
I2
sg28
I10
ssI11
(dp794
g20
I-180
sg21
I-360
sg22
I-166
sg23
I-365
sg24
I118
sg8
g782
sg25
I9
sg12
I3
sg26
F280.0155731350196
sg27
I3
sg28
I11
ssI12
(dp795
g20
I420
sg21
I-480
sg22
I427
sg23
I-469
sg24
I139
sg8
g782
sg25
I9
sg12
I4
sg26
F280.19039046316993
sg27
I2
sg28
I12
ssI13
(dp796
g20
I420
sg21
I-480
sg22
I435
sg23
I-468
sg24
I139
sg8
g782
sg25
I9
sg12
I4
sg26
F280.4405066206409
sg27
I3
sg28
I13
ssI14
(dp797
g20
I420
sg21
I-240
sg22
I449
sg23
I-251
sg24
I107
sg8
g782
sg25
I9
sg12
I4
sg26
F280.60704228935265
sg27
I1
sg28
I14
ssI15
(dp798
g20
I420
sg21
I-240
sg22
I450
sg23
I-235
sg24
I107
sg8
g782
sg25
I9
sg12
I4
sg26
F280.77373897173493
sg27
I1
sg28
I15
ssI16
(dp799
g20
I420
sg21
I-240
sg22
I446
sg23
I-233
sg24
I107
sg8
g782
sg25
I9
sg12
I4
sg26
F280.931947455314
sg27
I1
sg28
I16
ssI17
(dp800
g20
I660
sg21
I-240
sg22
I644
sg23
I-249
sg24
I109
sg8
g782
sg25
I9
sg12
I5
sg26
F281.0903899275736
sg27
I2
sg28
I17
ssI18
(dp801
g20
I780
sg21
I-480
sg22
I765
sg23
I-435
sg24
I142
sg8
g782
sg25
I9
sg12
I5
sg26
F281.3403594655283
sg27
I1
sg28
I18
ssI19
(dp802
g20
I780
sg21
I-480
sg22
I774
sg23
I-435
sg24
I142
sg8
g782
sg25
I9
sg12
I5
sg26
F281.5069269352771
sg27
I1
sg28
I19
ssI20
(dp803
g20
I780
sg21
I-480
sg22
I774
sg23
I-436
sg24
I142
sg8
g782
sg25
I9
sg12
I5
sg26
F281.66521475407444
sg27
I1
sg28
I20
ssI21
(dp804
g20
I540
sg21
I0
sg22
I539
sg23
I-35
sg24
I76
sg8
g782
sg25
I9
sg12
I5
sg26
F281.83186022004975
sg27
I1
sg28
I21
ssI22
(dp805
g20
I540
sg21
I0
sg22
I537
sg23
I-28
sg24
I76
sg8
g782
sg25
I9
sg12
I5
sg26
F281.9986121358106
sg27
I1
sg28
I22
ssI23
(dp806
g20
I540
sg21
I0
sg22
I535
sg23
I-25
sg24
I76
sg8
g782
sg25
I9
sg12
I5
sg26
F282.17346093025026
sg27
I1
sg28
I23
ssI24
(dp807
g20
I900
sg21
I0
sg22
I867
sg23
I16
sg24
I79
sg8
g782
sg25
I9
sg12
I6
sg26
F282.3401194513881
sg27
I2
sg28
I24
ssI25
(dp808
g20
I900
sg21
I0
sg22
I872
sg23
I12
sg24
I79
sg8
g782
sg25
I9
sg12
I6
sg26
F282.5818220588053
sg27
I3
sg28
I25
ssI26
(dp809
g20
I780
sg21
I240
sg22
I779
sg23
I241
sg24
I46
sg8
g782
sg25
I9
sg12
I7
sg26
F282.74012226326977
sg27
I2
sg28
I26
ssI27
(dp810
g20
I780
sg21
I240
sg22
I776
sg23
I253
sg24
I46
sg8
g782
sg25
I9
sg12
I7
sg26
F282.9817522304238
sg27
I3
sg28
I27
ssI28
(dp811
g20
I780
sg21
I240
sg22
I777
sg23
I258
sg24
I46
sg8
g782
sg25
I9
sg12
I7
sg26
F283.140007243941
sg27
I3
sg28
I28
ssI29
(dp812
g20
I900
sg21
I480
sg22
I859
sg23
I492
sg24
I15
sg8
g782
sg25
I9
sg12
I7
sg26
F283.2984159066773
sg27
I1
sg28
I29
ssI30
(dp813
g20
I900
sg21
I480
sg22
I856
sg23
I492
sg24
I15
sg8
g782
sg25
I9
sg12
I7
sg26
F283.4567080771949
sg27
I1
sg28
I30
ssI31
(dp814
g20
I900
sg21
I480
sg22
I854
sg23
I483
sg24
I15
sg8
g782
sg25
I9
sg12
I7
sg26
F283.623337810026
sg27
I1
sg28
I31
ssI32
(dp815
g20
I540
sg21
I360
sg22
I530
sg23
I386
sg24
I28
sg8
g782
sg25
I9
sg12
I8
sg26
F283.781721701429
sg27
I2
sg28
I32
ssI33
(dp816
g20
I540
sg21
I360
sg22
I536
sg23
I387
sg24
I28
sg8
g782
sg25
I9
sg12
I8
sg26
F284.02326664265365
sg27
I3
sg28
I33
ssI34
(dp817
g20
I300
sg21
I240
sg22
I299
sg23
I280
sg24
I42
sg8
g782
sg25
I9
sg12
I8
sg26
F284.190020232154
sg27
I1
sg28
I34
ssI35
(dp818
g20
I300
sg21
I240
sg22
I298
sg23
I270
sg24
I42
sg8
g782
sg25
I9
sg12
I8
sg26
F284.35666067691363
sg27
I1
sg28
I35
ssI36
(dp819
g20
I180
sg21
I480
sg22
I192
sg23
I465
sg24
I9
sg8
g782
sg25
I9
sg12
I9
sg26
F284.5149180336648
sg27
I2
sg28
I36
ssI37
(dp820
g20
I180
sg21
I480
sg22
I183
sg23
I469
sg24
I9
sg8
g782
sg25
I9
sg12
I9
sg26
F284.7649802967471
sg27
I3
sg28
I37
ssI38
(dp821
g20
I60
sg21
I120
sg22
I27
sg23
I157
sg24
I56
sg8
g782
sg25
I9
sg12
I9
sg26
F284.93158592773943
sg27
I1
sg28
I38
ssI39
(dp822
g20
I60
sg21
I120
sg22
I31
sg23
I152
sg24
I56
sg8
g782
sg25
I9
sg12
I9
sg26
F285.09822570300366
sg27
I1
sg28
I39
ssI40
(dp823
g20
I-60
sg21
I360
sg22
I-78
sg23
I355
sg24
I23
sg8
g782
sg25
I9
sg12
I10
sg26
F285.26490732173625
sg27
I2
sg28
I40
sssg151
I39
sg152
I1920
sg153
S'trial09.png'
p824
sg155
VTrial 4->trial09.png
p825
sg157
S'results\\P039\\trial_png\\trial09.png'
p826
sg159
g160
sg305
I9
sg306
I16
sg307
(lp827
I1
aI0
aI1
aI0
aI0
aI0
aI0
aI0
aI0
aI3
aI0
aI0
aI0
aI0
aI0
aI1
aI0
aI0
aI0
aI0
aI0
aI1
aI0
aI3
aI0
aI0
aI0
aI0
aI3
aI0
aI0
aI0
aI0
aI2
aI0
aI2
aI0
aI0
aI0
aI0
aI0
aI0
aI1
aI0
aI0
aI0
aI3
aI0
aI0
aI0
aI0
aI0
aI0
aI2
aI0
aI0
aI1
aI0
aI0
aI0
aI0
aI0
aI0
aI0
aI1
aI0
aI2
aI0
aI0
aI0
aI0
aI0
aI0
aI0
aI0
aI0
aI1
aI0
aI0
aI3
aI0
aI0
aI0
aI0
aI0
aI1
aI0
aI3
aI0
aI3
aI0
aI0
aI0
aI0
aI0
aI0
aI0
aI1
aI0
aI1
aI0
aI0
aI0
aI0
aI0
aI0
aI0
aI1
aI0
aI3
aI0
aI0
aI0
aI0
aI0
aI0
aI0
aI0
aI3
aI0
aI0
aI1
aI0
aI0
aI0
aI0
aI0
aI0
aI1
aI0
aI2
aI0
aI0
aI0
aI0
aI0
aI0
aI0
aI0
aI3
aI0
aI0
aI1
aI0
asg309
I9
sg310
I30
sg311
I1080
ssI10
(dp828
g2
I10
sg3
g4
sg5
I2
sg6
g7
sg8
VTrial 1
p829
sg10
g11
sg12
I10
sg13
g14
sg15
g16
sg17
(dp830
I1
(dp831
g20
I-60
sg21
I0
sg22
I-7
sg23
I4
sg24
I71
sg8
g829
sg25
I10
sg12
I0
sg26
F290.64745203399434
sg27
I1
sg28
I1
ssI2
(dp832
g20
I-180
sg21
I0
sg22
I-129
sg23
I52
sg24
I70
sg8
g829
sg25
I10
sg12
I0
sg26
F290.8144496546074
sg27
I0
sg28
I2
ssI3
(dp833
g20
I-180
sg21
I0
sg22
I-130
sg23
I46
sg24
I70
sg8
g829
sg25
I10
sg12
I0
sg26
F290.89741855921875
sg27
I0
sg28
I3
ssI4
(dp834
g20
I-60
sg21
I0
sg22
I-93
sg23
I14
sg24
I71
sg8
g829
sg25
I10
sg12
I0
sg26
F290.9808450640103
sg27
I1
sg28
I4
ssI5
(dp835
g20
I-60
sg21
I240
sg22
I-89
sg23
I279
sg24
I39
sg8
g829
sg25
I10
sg12
I1
sg26
F291.13916669233004
sg27
I2
sg28
I5
ssI6
(dp836
g20
I-60
sg21
I240
sg22
I-90
sg23
I289
sg24
I39
sg8
g829
sg25
I10
sg12
I1
sg26
F291.380830803756
sg27
I3
sg28
I6
ssI7
(dp837
g20
I-180
sg21
I480
sg22
I-175
sg23
I455
sg24
I6
sg8
g829
sg25
I10
sg12
I1
sg26
F291.5473477265941
sg27
I1
sg28
I7
ssI8
(dp838
g20
I-180
sg21
I480
sg22
I-173
sg23
I459
sg24
I6
sg8
g829
sg25
I10
sg12
I1
sg26
F291.70568374906725
sg27
I1
sg28
I8
ssI9
(dp839
g20
I-180
sg21
I360
sg22
I-227
sg23
I406
sg24
I22
sg8
g829
sg25
I10
sg12
I1
sg26
F291.8639775933243
sg27
I0
sg28
I9
ssI10
(dp840
g20
I-300
sg21
I240
sg22
I-325
sg23
I265
sg24
I37
sg8
g829
sg25
I10
sg12
I1
sg26
F291.9555866722185
sg27
I1
sg28
I10
ssI11
(dp841
g20
I-300
sg21
I240
sg22
I-320
sg23
I265
sg24
I37
sg8
g829
sg25
I10
sg12
I1
sg26
F292.12231314715063
sg27
I1
sg28
I11
ssI12
(dp842
g20
I-420
sg21
I360
sg22
I-389
sg23
I403
sg24
I20
sg8
g829
sg25
I10
sg12
I1
sg26
F292.2889479011983
sg27
I0
sg28
I12
ssI13
(dp843
g20
I-420
sg21
I480
sg22
I-406
sg23
I437
sg24
I4
sg8
g829
sg25
I10
sg12
I2
sg26
F292.3805288612821
sg27
I2
sg28
I13
ssI14
(dp844
g20
I-420
sg21
I480
sg22
I-401
sg23
I438
sg24
I4
sg8
g829
sg25
I10
sg12
I2
sg26
F292.63053689522803
sg27
I3
sg28
I14
ssI15
(dp845
g20
I-540
sg21
I240
sg22
I-530
sg23
I239
sg24
I35
sg8
g829
sg25
I10
sg12
I3
sg26
F292.7972365903397
sg27
I2
sg28
I15
ssI16
(dp846
g20
I-540
sg21
I240
sg22
I-527
sg23
I237
sg24
I35
sg8
g829
sg25
I10
sg12
I3
sg26
F293.04723759458284
sg27
I3
sg28
I16
ssI17
(dp847
g20
I-660
sg21
I360
sg22
I-633
sg23
I399
sg24
I18
sg8
g829
sg25
I10
sg12
I3
sg26
F293.2055505194612
sg27
I0
sg28
I17
ssI18
(dp848
g20
I-660
sg21
I480
sg22
I-648
sg23
I442
sg24
I2
sg8
g829
sg25
I10
sg12
I3
sg26
F293.2972449590334
sg27
I1
sg28
I18
ssI19
(dp849
g20
I-660
sg21
I480
sg22
I-650
sg23
I445
sg24
I2
sg8
g829
sg25
I10
sg12
I3
sg26
F293.4555535321915
sg27
I1
sg28
I19
ssI20
(dp850
g20
I-660
sg21
I360
sg22
I-700
sg23
I402
sg24
I18
sg8
g829
sg25
I10
sg12
I3
sg26
F293.6137867871039
sg27
I0
sg28
I20
ssI21
(dp851
g20
I-780
sg21
I240
sg22
I-771
sg23
I236
sg24
I33
sg8
g829
sg25
I10
sg12
I3
sg26
F293.7053968702421
sg27
I1
sg28
I21
ssI22
(dp852
g20
I-780
sg21
I240
sg22
I-773
sg23
I236
sg24
I33
sg8
g829
sg25
I10
sg12
I3
sg26
F293.8637720582028
sg27
I1
sg28
I22
ssI23
(dp853
g20
I-900
sg21
I480
sg22
I-877
sg23
I469
sg24
I0
sg8
g829
sg25
I10
sg12
I4
sg26
F294.0304593676483
sg27
I2
sg28
I23
ssI24
(dp854
g20
I-900
sg21
I480
sg22
I-873
sg23
I455
sg24
I0
sg8
g829
sg25
I10
sg12
I4
sg26
F294.2804419607646
sg27
I3
sg28
I24
ssI25
(dp855
g20
I-780
sg21
I0
sg22
I-778
sg23
I45
sg24
I65
sg8
g829
sg25
I10
sg12
I5
sg26
F294.44702081193736
sg27
I2
sg28
I25
ssI26
(dp856
g20
I-780
sg21
I0
sg22
I-747
sg23
I-11
sg24
I65
sg8
g829
sg25
I10
sg12
I5
sg26
F294.70543201875626
sg27
I3
sg28
I26
ssI27
(dp857
g20
I-780
sg21
I-360
sg22
I-727
sg23
I-315
sg24
I113
sg8
g829
sg25
I10
sg12
I6
sg26
F294.8804040003697
sg27
I2
sg28
I27
ssI28
(dp858
g20
I-660
sg21
I-360
sg22
I-704
sg23
I-322
sg24
I114
sg8
g829
sg25
I10
sg12
I6
sg26
F295.1220443447046
sg27
I0
sg28
I28
ssI29
(dp859
g20
I-660
sg21
I-360
sg22
I-718
sg23
I-337
sg24
I114
sg8
g829
sg25
I10
sg12
I6
sg26
F295.20529309843823
sg27
I0
sg28
I29
ssI30
(dp860
g20
I-420
sg21
I-360
sg22
I-470
sg23
I-318
sg24
I116
sg8
g829
sg25
I10
sg12
I6
sg26
F295.2885080426495
sg27
I0
sg28
I30
ssI31
(dp861
g20
I-420
sg21
I-360
sg22
I-467
sg23
I-316
sg24
I116
sg8
g829
sg25
I10
sg12
I6
sg26
F295.3718304408894
sg27
I0
sg28
I31
ssI32
(dp862
g20
I-420
sg21
I-360
sg22
I-478
sg23
I-320
sg24
I116
sg8
g829
sg25
I10
sg12
I6
sg26
F295.4552820517629
sg27
I0
sg28
I32
ssI33
(dp863
g20
I-420
sg21
I-120
sg22
I-420
sg23
I-129
sg24
I84
sg8
g829
sg25
I10
sg12
I6
sg26
F295.5384752373693
sg27
I1
sg28
I33
ssI34
(dp864
g20
I-420
sg21
I-120
sg22
I-428
sg23
I-127
sg24
I84
sg8
g829
sg25
I10
sg12
I6
sg26
F295.69692808680884
sg27
I1
sg28
I34
ssI35
(dp865
g20
I-420
sg21
I-120
sg22
I-428
sg23
I-126
sg24
I84
sg8
g829
sg25
I10
sg12
I6
sg26
F295.85527850343624
sg27
I1
sg28
I35
ssI36
(dp866
g20
I-540
sg21
I-360
sg22
I-519
sg23
I-310
sg24
I115
sg8
g829
sg25
I10
sg12
I6
sg26
F296.00522708618155
sg27
I1
sg28
I36
ssI37
(dp867
g20
I-540
sg21
I-360
sg22
I-512
sg23
I-318
sg24
I115
sg8
g829
sg25
I10
sg12
I6
sg26
F296.1635145702303
sg27
I1
sg28
I37
ssI38
(dp868
g20
I-540
sg21
I-360
sg22
I-510
sg23
I-317
sg24
I115
sg8
g829
sg25
I10
sg12
I6
sg26
F296.3301506632688
sg27
I1
sg28
I38
ssI39
(dp869
g20
I-300
sg21
I-360
sg22
I-255
sg23
I-325
sg24
I117
sg8
g829
sg25
I10
sg12
I7
sg26
F296.48850576636505
sg27
I2
sg28
I39
ssI40
(dp870
g20
I-300
sg21
I-360
sg22
I-244
sg23
I-327
sg24
I117
sg8
g829
sg25
I10
sg12
I7
sg26
F296.73018058971866
sg27
I3
sg28
I40
ssI41
(dp871
g20
I-60
sg21
I-480
sg22
I-54
sg23
I-440
sg24
I135
sg8
g829
sg25
I10
sg12
I7
sg26
F296.89683174640595
sg27
I1
sg28
I41
ssI42
(dp872
g20
I-60
sg21
I-480
sg22
I-53
sg23
I-441
sg24
I135
sg8
g829
sg25
I10
sg12
I7
sg26
F297.06338482200135
sg27
I1
sg28
I42
ssI43
(dp873
g20
I-60
sg21
I-360
sg22
I-24
sg23
I-353
sg24
I119
sg8
g829
sg25
I10
sg12
I7
sg26
F297.23006978821195
sg27
I0
sg28
I43
ssI44
(dp874
g20
I-60
sg21
I-240
sg22
I-35
sg23
I-231
sg24
I103
sg8
g829
sg25
I10
sg12
I8
sg26
F297.3133008003151
sg27
I2
sg28
I44
ssI45
(dp875
g20
I-60
sg21
I-240
sg22
I-33
sg23
I-230
sg24
I103
sg8
g829
sg25
I10
sg12
I8
sg26
F297.5550422384713
sg27
I3
sg28
I45
ssI46
(dp876
g20
I-60
sg21
I120
sg22
I-50
sg23
I120
sg24
I55
sg8
g829
sg25
I10
sg12
I8
sg26
F297.71330896816016
sg27
I0
sg28
I46
ssI47
(dp877
g20
I-60
sg21
I120
sg22
I-51
sg23
I123
sg24
I55
sg8
g829
sg25
I10
sg12
I8
sg26
F297.821533251833
sg27
I0
sg28
I47
ssI48
(dp878
g20
I60
sg21
I120
sg22
I67
sg23
I70
sg24
I56
sg8
g829
sg25
I10
sg12
I8
sg26
F297.9050487995273
sg27
I0
sg28
I48
ssI49
(dp879
g20
I180
sg21
I0
sg22
I162
sg23
I28
sg24
I73
sg8
g829
sg25
I10
sg12
I9
sg26
F297.9799800758137
sg27
I2
sg28
I49
ssI50
(dp880
g20
I180
sg21
I0
sg22
I166
sg23
I28
sg24
I73
sg8
g829
sg25
I10
sg12
I9
sg26
F298.2216294583377
sg27
I3
sg28
I50
ssI51
(dp881
g20
I180
sg21
I0
sg22
I192
sg23
I20
sg24
I73
sg8
g829
sg25
I10
sg12
I9
sg26
F298.37987643790893
sg27
I3
sg28
I51
ssI52
(dp882
g20
I180
sg21
I240
sg22
I164
sg23
I269
sg24
I41
sg8
g829
sg25
I10
sg12
I9
sg26
F298.5382174815986
sg27
I1
sg28
I52
ssI53
(dp883
g20
I180
sg21
I240
sg22
I162
sg23
I276
sg24
I41
sg8
g829
sg25
I10
sg12
I9
sg26
F298.6964406940788
sg27
I1
sg28
I53
ssI54
(dp884
g20
I60
sg21
I480
sg22
I100
sg23
I460
sg24
I8
sg8
g829
sg25
I10
sg12
I10
sg26
F298.84656401515167
sg27
I2
sg28
I54
sssg151
I39
sg152
I1920
sg153
S'trial10.png'
p885
sg155
VTrial 1->trial10.png
p886
sg157
S'results\\P039\\trial_png\\trial10.png'
p887
sg159
g160
sg305
I10
sg306
I16
sg307
(lp888
I3
aI0
aI1
aI0
aI3
aI0
aI1
aI0
aI3
aI0
aI1
aI0
aI0
aI0
aI2
aI0
aI0
aI0
aI0
aI0
aI0
aI0
aI0
aI0
aI0
aI0
aI0
aI0
aI0
aI0
aI0
aI0
aI0
aI1
aI0
aI3
aI0
aI1
aI0
aI3
aI0
aI1
aI0
aI0
aI2
aI0
aI0
aI1
aI0
aI0
aI0
aI0
aI0
aI0
aI0
aI0
aI0
aI0
aI0
aI0
aI0
aI0
aI0
aI0
aI0
aI3
aI0
aI0
aI0
aI0
aI0
aI1
aI0
aI3
aI0
aI0
aI0
aI1
aI0
aI0
aI0
aI0
aI0
aI0
aI1
aI0
aI0
aI0
aI0
aI0
aI0
aI2
aI0
aI0
aI0
aI2
aI0
aI0
aI0
aI0
aI0
aI0
aI0
aI3
aI0
aI0
aI0
aI0
aI0
aI0
aI0
aI0
aI0
aI3
aI0
aI1
aI0
aI3
aI0
aI0
aI0
aI1
aI0
aI1
aI0
aI2
aI0
aI1
aI0
aI0
aI0
aI0
aI0
aI0
aI0
aI1
aI0
aI0
aI0
aI0
aI0
aI0
aI0
aI0
asg309
I9
sg310
I30
sg311
I1080
ssI11
(dp889
g2
I11
sg3
g4
sg5
I2
sg6
g7
sg8
VRightcluster 3
p890
sg10
g11
sg12
I10
sg13
g14
sg15
g16
sg17
(dp891
I1
(dp892
g20
I60
sg21
I0
sg22
I2
sg23
I3
sg24
I72
sg8
g890
sg25
I11
sg12
I0
sg26
F303.60417350109947
sg27
I0
sg28
I1
ssI2
(dp893
g20
I-60
sg21
I0
sg22
I-36
sg23
I11
sg24
I71
sg8
g890
sg25
I11
sg12
I0
sg26
F303.68756452262915
sg27
I0
sg28
I2
ssI3
(dp894
g20
I-60
sg21
I0
sg22
I-31
sg23
I8
sg24
I71
sg8
g890
sg25
I11
sg12
I0
sg26
F303.77090767522986
sg27
I0
sg28
I3
ssI4
(dp895
g20
I-60
sg21
I0
sg22
I-78
sg23
I-52
sg24
I71
sg8
g890
sg25
I11
sg12
I0
sg26
F303.86253181777374
sg27
I0
sg28
I4
ssI5
(dp896
g20
I-60
sg21
I0
sg22
I-72
sg23
I-54
sg24
I71
sg8
g890
sg25
I11
sg12
I0
sg26
F303.9541405619211
sg27
I0
sg28
I5
ssI6
(dp897
g20
I-60
sg21
I0
sg22
I-71
sg23
I-52
sg24
I71
sg8
g890
sg25
I11
sg12
I0
sg26
F304.045795501258
sg27
I0
sg28
I6
ssI7
(dp898
g20
I-60
sg21
I0
sg22
I-73
sg23
I-55
sg24
I71
sg8
g890
sg25
I11
sg12
I0
sg26
F304.13752308085714
sg27
I0
sg28
I7
ssI8
(dp899
g20
I-60
sg21
I-120
sg22
I-46
sg23
I-78
sg24
I87
sg8
g890
sg25
I11
sg12
I0
sg26
F304.2291522446176
sg27
I1
sg28
I8
ssI9
(dp900
g20
I-60
sg21
I-120
sg22
I-43
sg23
I-76
sg24
I87
sg8
g890
sg25
I11
sg12
I0
sg26
F304.40422063358346
sg27
I1
sg28
I9
ssI10
(dp901
g20
I60
sg21
I-240
sg22
I66
sg23
I-253
sg24
I104
sg8
g890
sg25
I11
sg12
I0
sg26
F304.57907746196906
sg27
I0
sg28
I10
ssI11
(dp902
g20
I60
sg21
I-240
sg22
I109
sg23
I-275
sg24
I104
sg8
g890
sg25
I11
sg12
I0
sg26
F304.6791017646565
sg27
I0
sg28
I11
ssI12
(dp903
g20
I60
sg21
I-240
sg22
I112
sg23
I-275
sg24
I104
sg8
g890
sg25
I11
sg12
I0
sg26
F304.77088189965343
sg27
I0
sg28
I12
ssI13
(dp904
g20
I60
sg21
I-240
sg22
I109
sg23
I-275
sg24
I104
sg8
g890
sg25
I11
sg12
I0
sg26
F304.87074418442717
sg27
I0
sg28
I13
ssI14
(dp905
g20
I60
sg21
I-240
sg22
I109
sg23
I-275
sg24
I104
sg8
g890
sg25
I11
sg12
I0
sg26
F304.962378704151
sg27
I0
sg28
I14
ssI15
(dp906
g20
I-60
sg21
I-480
sg22
I-44
sg23
I-459
sg24
I135
sg8
g890
sg25
I11
sg12
I0
sg26
F305.05401155013624
sg27
I1
sg28
I15
ssI16
(dp907
g20
I-60
sg21
I-480
sg22
I-50
sg23
I-459
sg24
I135
sg8
g890
sg25
I11
sg12
I0
sg26
F305.2291104011483
sg27
I1
sg28
I16
ssI17
(dp908
g20
I-60
sg21
I-480
sg22
I-40
sg23
I-459
sg24
I135
sg8
g890
sg25
I11
sg12
I0
sg26
F305.40418950204275
sg27
I1
sg28
I17
ssI18
(dp909
g20
I180
sg21
I-360
sg22
I183
sg23
I-307
sg24
I121
sg8
g890
sg25
I11
sg12
I0
sg26
F305.5789961182645
sg27
I0
sg28
I18
ssI19
(dp910
g20
I180
sg21
I-240
sg22
I195
sg23
I-249
sg24
I105
sg8
g890
sg25
I11
sg12
I1
sg26
F305.6789862766809
sg27
I2
sg28
I19
ssI20
(dp911
g20
I180
sg21
I-240
sg22
I197
sg23
I-248
sg24
I105
sg8
g890
sg25
I11
sg12
I1
sg26
F305.92895012392364
sg27
I3
sg28
I20
ssI21
(dp912
g20
I300
sg21
I-480
sg22
I302
sg23
I-434
sg24
I138
sg8
g890
sg25
I11
sg12
I2
sg26
F306.09576765024485
sg27
I2
sg28
I21
ssI22
(dp913
g20
I300
sg21
I-480
sg22
I310
sg23
I-434
sg24
I138
sg8
g890
sg25
I11
sg12
I2
sg26
F306.34562303921484
sg27
I3
sg28
I22
ssI23
(dp914
g20
I420
sg21
I0
sg22
I363
sg23
I-8
sg24
I75
sg8
g890
sg25
I11
sg12
I2
sg26
F306.51235085313783
sg27
I0
sg28
I23
ssI24
(dp915
g20
I420
sg21
I0
sg22
I364
sg23
I5
sg24
I75
sg8
g890
sg25
I11
sg12
I2
sg26
F306.62055973841416
sg27
I0
sg28
I24
ssI25
(dp916
g20
I300
sg21
I0
sg22
I327
sg23
I26
sg24
I74
sg8
g890
sg25
I11
sg12
I3
sg26
F306.7124801327209
sg27
I2
sg28
I25
ssI26
(dp917
g20
I300
sg21
I0
sg22
I333
sg23
I33
sg24
I74
sg8
g890
sg25
I11
sg12
I3
sg26
F306.96229100023993
sg27
I3
sg28
I26
ssI27
(dp918
g20
I60
sg21
I360
sg22
I69
sg23
I328
sg24
I24
sg8
g890
sg25
I11
sg12
I3
sg26
F307.12882365622227
sg27
I0
sg28
I27
ssI28
(dp919
g20
I60
sg21
I360
sg22
I67
sg23
I331
sg24
I24
sg8
g890
sg25
I11
sg12
I3
sg26
F307.2288496326473
sg27
I0
sg28
I28
ssI29
(dp920
g20
I60
sg21
I360
sg22
I65
sg23
I332
sg24
I24
sg8
g890
sg25
I11
sg12
I3
sg26
F307.3121536197614
sg27
I0
sg28
I29
ssI30
(dp921
g20
I60
sg21
I360
sg22
I65
sg23
I336
sg24
I24
sg8
g890
sg25
I11
sg12
I3
sg26
F307.40376269865556
sg27
I0
sg28
I30
ssI31
(dp922
g20
I60
sg21
I360
sg22
I68
sg23
I339
sg24
I24
sg8
g890
sg25
I11
sg12
I3
sg26
F307.49538349372233
sg27
I0
sg28
I31
ssI32
(dp923
g20
I60
sg21
I360
sg22
I69
sg23
I340
sg24
I24
sg8
g890
sg25
I11
sg12
I3
sg26
F307.5871432091062
sg27
I0
sg28
I32
ssI33
(dp924
g20
I-180
sg21
I480
sg22
I-152
sg23
I469
sg24
I6
sg8
g890
sg25
I11
sg12
I3
sg26
F307.6871875966581
sg27
I1
sg28
I33
ssI34
(dp925
g20
I-180
sg21
I480
sg22
I-148
sg23
I472
sg24
I6
sg8
g890
sg25
I11
sg12
I3
sg26
F307.87033579216677
sg27
I1
sg28
I34
ssI35
(dp926
g20
I-180
sg21
I480
sg22
I-152
sg23
I468
sg24
I6
sg8
g890
sg25
I11
sg12
I3
sg26
F308.0371750770919
sg27
I1
sg28
I35
ssI36
(dp927
g20
I300
sg21
I480
sg22
I342
sg23
I499
sg24
I10
sg8
g890
sg25
I11
sg12
I4
sg26
F308.2037438858324
sg27
I2
sg28
I36
ssI37
(dp928
g20
I300
sg21
I480
sg22
I344
sg23
I502
sg24
I10
sg8
g890
sg25
I11
sg12
I4
sg26
F308.4537278179396
sg27
I3
sg28
I37
ssI38
(dp929
g20
I60
sg21
I240
sg22
I77
sg23
I257
sg24
I40
sg8
g890
sg25
I11
sg12
I5
sg26
F308.62863251525414
sg27
I2
sg28
I38
ssI39
(dp930
g20
I60
sg21
I240
sg22
I86
sg23
I254
sg24
I40
sg8
g890
sg25
I11
sg12
I5
sg26
F308.87873996928374
sg27
I3
sg28
I39
ssI40
(dp931
g20
I540
sg21
I240
sg22
I557
sg23
I268
sg24
I44
sg8
g890
sg25
I11
sg12
I6
sg26
F309.037071305288
sg27
I2
sg28
I40
ssI41
(dp932
g20
I540
sg21
I240
sg22
I561
sg23
I265
sg24
I44
sg8
g890
sg25
I11
sg12
I6
sg26
F309.27855398343127
sg27
I3
sg28
I41
ssI42
(dp933
g20
I540
sg21
I240
sg22
I552
sg23
I262
sg24
I44
sg8
g890
sg25
I11
sg12
I6
sg26
F309.4452185300288
sg27
I3
sg28
I42
ssI43
(dp934
g20
I660
sg21
I480
sg22
I660
sg23
I497
sg24
I13
sg8
g890
sg25
I11
sg12
I7
sg26
F309.6035880272775
sg27
I2
sg28
I43
ssI44
(dp935
g20
I660
sg21
I480
sg22
I662
sg23
I495
sg24
I13
sg8
g890
sg25
I11
sg12
I7
sg26
F309.8452046045222
sg27
I3
sg28
I44
ssI45
(dp936
g20
I900
sg21
I480
sg22
I928
sg23
I512
sg24
I15
sg8
g890
sg25
I11
sg12
I8
sg26
F310.011981626365
sg27
I2
sg28
I45
ssI46
(dp937
g20
I900
sg21
I480
sg22
I931
sg23
I511
sg24
I15
sg8
g890
sg25
I11
sg12
I8
sg26
F310.25349710978753
sg27
I3
sg28
I46
ssI47
(dp938
g20
I780
sg21
I240
sg22
I784
sg23
I251
sg24
I46
sg8
g890
sg25
I11
sg12
I9
sg26
F310.420039808203
sg27
I2
sg28
I47
ssI48
(dp939
g20
I780
sg21
I240
sg22
I780
sg23
I247
sg24
I46
sg8
g890
sg25
I11
sg12
I9
sg26
F310.6702018261158
sg27
I3
sg28
I48
ssI49
(dp940
g20
I780
sg21
I240
sg22
I782
sg23
I235
sg24
I46
sg8
g890
sg25
I11
sg12
I9
sg26
F310.8368318936946
sg27
I3
sg28
I49
ssI50
(dp941
g20
I780
sg21
I0
sg22
I793
sg23
I7
sg24
I78
sg8
g890
sg25
I11
sg12
I10
sg26
F311.00342380002985
sg27
I2
sg28
I50
sssg151
I39
sg152
I1920
sg153
S'trial11.png'
p942
sg155
VRightcluster 3->trial11.png
p943
sg157
S'results\\P039\\trial_png\\trial11.png'
p944
sg159
g160
sg305
I1
sg306
I16
sg307
(lp945
I0
aI0
aI1
aI0
aI0
aI0
aI1
aI0
aI0
aI0
aI3
aI0
aI0
aI3
aI0
aI3
aI1
aI0
aI0
aI0
aI0
aI0
aI0
aI0
aI0
aI0
aI0
aI0
aI0
aI0
aI0
aI0
aI0
aI0
aI1
aI0
aI1
aI0
aI0
aI0
aI3
aI0
aI0
aI0
aI3
aI0
aI3
aI0
aI0
aI0
aI0
aI0
aI0
aI0
aI1
aI0
aI0
aI0
aI0
aI0
aI0
aI0
aI0
aI0
aI1
aI0
aI1
aI0
aI0
aI0
aI0
aI0
aI0
aI0
aI3
aI0
aI2
aI0
aI3
aI0
aI0
aI0
aI0
aI0
aI1
aI0
aI0
aI1
aI0
aI0
aI0
aI0
aI0
aI0
aI0
aI0
aI0
aI0
aI1
aI0
aI0
aI0
aI0
aI0
aI0
aI3
aI0
aI0
aI0
aI2
aI0
aI2
aI1
aI0
aI0
aI0
aI0
aI1
aI0
aI0
aI0
aI0
aI0
aI0
aI0
aI0
aI0
aI0
aI0
aI0
aI0
aI1
aI0
aI0
aI0
aI1
aI0
aI0
aI3
aI0
aI2
aI0
aI0
aI2
asg309
I9
sg310
I30
sg311
I1080
ssI12
(dp946
g2
I12
sg3
g4
sg5
I2
sg6
g7
sg8
VRightcluster 5
p947
sg10
g11
sg12
I10
sg13
g14
sg15
g16
sg17
(dp948
I1
(dp949
g20
I-60
sg21
I0
sg22
I-4
sg23
I-4
sg24
I71
sg8
g947
sg25
I12
sg12
I0
sg26
F315.53609216810764
sg27
I0
sg28
I1
ssI2
(dp950
g20
I-60
sg21
I0
sg22
I-3
sg23
I-5
sg24
I71
sg8
g947
sg25
I12
sg12
I0
sg26
F315.6277986585983
sg27
I0
sg28
I2
ssI3
(dp951
g20
I-60
sg21
I0
sg22
I0
sg23
I-6
sg24
I71
sg8
g947
sg25
I12
sg12
I0
sg26
F315.7195135177835
sg27
I0
sg28
I3
ssI4
(dp952
g20
I-60
sg21
I120
sg22
I-74
sg23
I96
sg24
I55
sg8
g947
sg25
I12
sg12
I0
sg26
F315.8027753266797
sg27
I1
sg28
I4
ssI5
(dp953
g20
I-60
sg21
I120
sg22
I-76
sg23
I89
sg24
I55
sg8
g947
sg25
I12
sg12
I0
sg26
F315.9694579496563
sg27
I1
sg28
I5
ssI6
(dp954
g20
I-180
sg21
I120
sg22
I-165
sg23
I124
sg24
I54
sg8
g947
sg25
I12
sg12
I0
sg26
F316.1361800728673
sg27
I1
sg28
I6
ssI7
(dp955
g20
I-180
sg21
I120
sg22
I-162
sg23
I128
sg24
I54
sg8
g947
sg25
I12
sg12
I0
sg26
F316.30278336062656
sg27
I1
sg28
I7
ssI8
(dp956
g20
I-180
sg21
I360
sg22
I-180
sg23
I352
sg24
I22
sg8
g947
sg25
I12
sg12
I0
sg26
F316.4694783692694
sg27
I1
sg28
I8
ssI9
(dp957
g20
I-180
sg21
I360
sg22
I-173
sg23
I353
sg24
I22
sg8
g947
sg25
I12
sg12
I0
sg26
F316.64429737115915
sg27
I1
sg28
I9
ssI10
(dp958
g20
I-180
sg21
I360
sg22
I-173
sg23
I351
sg24
I22
sg8
g947
sg25
I12
sg12
I0
sg26
F316.811066359056
sg27
I1
sg28
I10
ssI11
(dp959
g20
I-300
sg21
I0
sg22
I-339
sg23
I-1
sg24
I69
sg8
g947
sg25
I12
sg12
I0
sg26
F316.97759667180344
sg27
I0
sg28
I11
ssI12
(dp960
g20
I-300
sg21
I0
sg22
I-337
sg23
I11
sg24
I69
sg8
g947
sg25
I12
sg12
I0
sg26
F317.07764273309476
sg27
I0
sg28
I12
ssI13
(dp961
g20
I-300
sg21
I0
sg22
I-337
sg23
I14
sg24
I69
sg8
g947
sg25
I12
sg12
I0
sg26
F317.1775575732663
sg27
I0
sg28
I13
ssI14
(dp962
g20
I-300
sg21
I-120
sg22
I-305
sg23
I-105
sg24
I85
sg8
g947
sg25
I12
sg12
I0
sg26
F317.2692155253326
sg27
I1
sg28
I14
ssI15
(dp963
g20
I-300
sg21
I-120
sg22
I-302
sg23
I-131
sg24
I85
sg8
g947
sg25
I12
sg12
I0
sg26
F317.4359905386891
sg27
I1
sg28
I15
ssI16
(dp964
g20
I-300
sg21
I-120
sg22
I-304
sg23
I-133
sg24
I85
sg8
g947
sg25
I12
sg12
I0
sg26
F317.610915320869
sg27
I1
sg28
I16
ssI17
(dp965
g20
I-420
sg21
I120
sg22
I-448
sg23
I88
sg24
I52
sg8
g947
sg25
I12
sg12
I0
sg26
F317.7776153507284
sg27
I1
sg28
I17
ssI18
(dp966
g20
I-420
sg21
I120
sg22
I-449
sg23
I87
sg24
I52
sg8
g947
sg25
I12
sg12
I0
sg26
F317.9525859933501
sg27
I1
sg28
I18
ssI19
(dp967
g20
I-420
sg21
I120
sg22
I-452
sg23
I90
sg24
I52
sg8
g947
sg25
I12
sg12
I0
sg26
F318.1192548916688
sg27
I1
sg28
I19
ssI20
(dp968
g20
I-420
sg21
I480
sg22
I-443
sg23
I421
sg24
I4
sg8
g947
sg25
I12
sg12
I0
sg26
F318.29425465734494
sg27
I1
sg28
I20
ssI21
(dp969
g20
I-420
sg21
I480
sg22
I-446
sg23
I423
sg24
I4
sg8
g947
sg25
I12
sg12
I0
sg26
F318.4608492416619
sg27
I1
sg28
I21
ssI22
(dp970
g20
I180
sg21
I360
sg22
I151
sg23
I415
sg24
I25
sg8
g947
sg25
I12
sg12
I1
sg26
F318.61928434947095
sg27
I2
sg28
I22
ssI23
(dp971
g20
I180
sg21
I360
sg22
I185
sg23
I371
sg24
I25
sg8
g947
sg25
I12
sg12
I1
sg26
F318.8774093469601
sg27
I3
sg28
I23
ssI24
(dp972
g20
I180
sg21
I360
sg22
I133
sg23
I394
sg24
I25
sg8
g947
sg25
I12
sg12
I1
sg26
F319.0607962176182
sg27
I3
sg28
I24
ssI25
(dp973
g20
I60
sg21
I480
sg22
I66
sg23
I457
sg24
I8
sg8
g947
sg25
I12
sg12
I2
sg26
F319.22749892545926
sg27
I2
sg28
I25
ssI26
(dp974
g20
I60
sg21
I480
sg22
I72
sg23
I456
sg24
I8
sg8
g947
sg25
I12
sg12
I2
sg26
F319.4857059361484
sg27
I3
sg28
I26
ssI27
(dp975
g20
I420
sg21
I480
sg22
I404
sg23
I478
sg24
I11
sg8
g947
sg25
I12
sg12
I3
sg26
F319.6606641931039
sg27
I2
sg28
I27
ssI28
(dp976
g20
I420
sg21
I480
sg22
I414
sg23
I484
sg24
I11
sg8
g947
sg25
I12
sg12
I3
sg26
F319.91068695595095
sg27
I3
sg28
I28
ssI29
(dp977
g20
I660
sg21
I360
sg22
I639
sg23
I390
sg24
I29
sg8
g947
sg25
I12
sg12
I4
sg26
F320.0774435581807
sg27
I2
sg28
I29
ssI30
(dp978
g20
I660
sg21
I360
sg22
I644
sg23
I379
sg24
I29
sg8
g947
sg25
I12
sg12
I4
sg26
F320.32724873498773
sg27
I3
sg28
I30
ssI31
(dp979
g20
I420
sg21
I240
sg22
I469
sg23
I189
sg24
I43
sg8
g947
sg25
I12
sg12
I4
sg26
F320.493953451316
sg27
I0
sg28
I31
ssI32
(dp980
g20
I420
sg21
I120
sg22
I423
sg23
I131
sg24
I59
sg8
g947
sg25
I12
sg12
I5
sg26
F320.59407851307697
sg27
I2
sg28
I32
ssI33
(dp981
g20
I420
sg21
I120
sg22
I429
sg23
I130
sg24
I59
sg8
g947
sg25
I12
sg12
I5
sg26
F320.85219715035873
sg27
I3
sg28
I33
ssI34
(dp982
g20
I180
sg21
I0
sg22
I181
sg23
I-4
sg24
I73
sg8
g947
sg25
I12
sg12
I6
sg26
F321.02719256431465
sg27
I2
sg28
I34
ssI35
(dp983
g20
I180
sg21
I0
sg22
I180
sg23
I-6
sg24
I73
sg8
g947
sg25
I12
sg12
I6
sg26
F321.28546016434757
sg27
I3
sg28
I35
ssI36
(dp984
g20
I420
sg21
I-240
sg22
I445
sg23
I-226
sg24
I107
sg8
g947
sg25
I12
sg12
I7
sg26
F321.4521899867568
sg27
I2
sg28
I36
ssI37
(dp985
g20
I420
sg21
I-240
sg22
I446
sg23
I-230
sg24
I107
sg8
g947
sg25
I12
sg12
I7
sg26
F321.69374865264035
sg27
I3
sg28
I37
ssI38
(dp986
g20
I420
sg21
I-240
sg22
I434
sg23
I-238
sg24
I107
sg8
g947
sg25
I12
sg12
I7
sg26
F321.8521091117
sg27
I3
sg28
I38
ssI39
(dp987
g20
I180
sg21
I-360
sg22
I180
sg23
I-363
sg24
I121
sg8
g947
sg25
I12
sg12
I8
sg26
F322.0103283072076
sg27
I2
sg28
I39
ssI40
(dp988
g20
I180
sg21
I-360
sg22
I191
sg23
I-367
sg24
I121
sg8
g947
sg25
I12
sg12
I8
sg26
F322.2521574492757
sg27
I3
sg28
I40
ssI41
(dp989
g20
I420
sg21
I-480
sg22
I443
sg23
I-478
sg24
I139
sg8
g947
sg25
I12
sg12
I9
sg26
F322.4187868473591
sg27
I2
sg28
I41
ssI42
(dp990
g20
I420
sg21
I-480
sg22
I449
sg23
I-480
sg24
I139
sg8
g947
sg25
I12
sg12
I9
sg26
F322.6771675921327
sg27
I3
sg28
I42
ssI43
(dp991
g20
I660
sg21
I-360
sg22
I639
sg23
I-364
sg24
I125
sg8
g947
sg25
I12
sg12
I10
sg26
F322.8685914216203
sg27
I2
sg28
I43
sssg151
I39
sg152
I1920
sg153
S'trial12.png'
p992
sg155
VRightcluster 5->trial12.png
p993
sg157
S'results\\P039\\trial_png\\trial12.png'
p994
sg159
g160
sg305
I2
sg306
I16
sg307
(lp995
I0
aI0
aI0
aI0
aI1
aI0
aI0
aI0
aI3
aI0
aI0
aI3
aI0
aI0
aI0
aI2
aI1
aI0
aI1
aI0
aI0
aI0
aI1
aI0
aI0
aI3
aI0
aI0
aI0
aI3
aI0
aI0
aI0
aI0
aI0
aI0
aI0
aI0
aI0
aI0
aI0
aI0
aI0
aI0
aI0
aI0
aI0
aI2
aI1
aI0
aI0
aI0
aI1
aI0
aI1
aI1
aI0
aI0
aI0
aI3
aI0
aI0
aI0
aI0
aI0
aI0
aI1
aI0
aI0
aI0
aI0
aI0
aI0
aI3
aI0
aI0
aI0
aI2
aI0
aI0
aI0
aI0
aI0
aI0
aI0
aI1
aI0
aI0
aI0
aI0
aI0
aI0
aI0
aI0
aI2
aI0
aI1
aI0
aI0
aI0
aI0
aI0
aI0
aI1
aI0
aI0
aI0
aI3
aI0
aI0
aI0
aI0
aI0
aI0
aI0
aI0
aI0
aI0
aI0
aI0
aI0
aI3
aI0
aI0
aI0
aI3
aI0
aI0
aI0
aI1
aI0
aI1
aI0
aI0
aI1
aI0
aI0
aI0
aI0
aI3
aI0
aI0
aI0
aI2
asg309
I9
sg310
I30
sg311
I1080
ssI13
(dp996
g2
I13
sg3
g4
sg5
I2
sg6
g7
sg8
VRightcluster 1
p997
sg10
g11
sg12
I10
sg13
g14
sg15
g16
sg17
(dp998
I1
(dp999
g20
I-60
sg21
I0
sg22
I-7
sg23
I6
sg24
I71
sg8
g997
sg25
I13
sg12
I0
sg26
F328.08459443970605
sg27
I0
sg28
I1
ssI2
(dp1000
g20
I-60
sg21
I120
sg22
I-57
sg23
I145
sg24
I55
sg8
g997
sg25
I13
sg12
I0
sg26
F328.1763069556564
sg27
I0
sg28
I2
ssI3
(dp1001
g20
I-60
sg21
I120
sg22
I-61
sg23
I150
sg24
I55
sg8
g997
sg25
I13
sg12
I0
sg26
F328.27635770341567
sg27
I0
sg28
I3
ssI4
(dp1002
g20
I-180
sg21
I240
sg22
I-157
sg23
I205
sg24
I38
sg8
g997
sg25
I13
sg12
I0
sg26
F328.35967541518767
sg27
I1
sg28
I4
ssI5
(dp1003
g20
I-180
sg21
I240
sg22
I-157
sg23
I208
sg24
I38
sg8
g997
sg25
I13
sg12
I0
sg26
F328.5180117724085
sg27
I1
sg28
I5
ssI6
(dp1004
g20
I-180
sg21
I120
sg22
I-202
sg23
I68
sg24
I54
sg8
g997
sg25
I13
sg12
I0
sg26
F328.68458526761697
sg27
I0
sg28
I6
ssI7
(dp1005
g20
I-180
sg21
I0
sg22
I-187
sg23
I-8
sg24
I70
sg8
g997
sg25
I13
sg12
I0
sg26
F328.76792339900203
sg27
I1
sg28
I7
ssI8
(dp1006
g20
I-180
sg21
I0
sg22
I-183
sg23
I-9
sg24
I70
sg8
g997
sg25
I13
sg12
I0
sg26
F328.9345926320675
sg27
I1
sg28
I8
ssI9
(dp1007
g20
I-180
sg21
I-240
sg22
I-156
sg23
I-222
sg24
I102
sg8
g997
sg25
I13
sg12
I0
sg26
F329.09282153526055
sg27
I1
sg28
I9
ssI10
(dp1008
g20
I-180
sg21
I-240
sg22
I-155
sg23
I-237
sg24
I102
sg8
g997
sg25
I13
sg12
I0
sg26
F329.2595911926528
sg27
I1
sg28
I10
ssI11
(dp1009
g20
I-180
sg21
I-240
sg22
I-158
sg23
I-236
sg24
I102
sg8
g997
sg25
I13
sg12
I0
sg26
F329.4262945699893
sg27
I1
sg28
I11
ssI12
(dp1010
g20
I-60
sg21
I-480
sg22
I-55
sg23
I-460
sg24
I135
sg8
g997
sg25
I13
sg12
I0
sg26
F329.59292865454154
sg27
I1
sg28
I12
ssI13
(dp1011
g20
I-60
sg21
I-480
sg22
I-57
sg23
I-462
sg24
I135
sg8
g997
sg25
I13
sg12
I0
sg26
F329.759397373703
sg27
I1
sg28
I13
ssI14
(dp1012
g20
I-420
sg21
I-480
sg22
I-391
sg23
I-447
sg24
I132
sg8
g997
sg25
I13
sg12
I0
sg26
F329.92612953934713
sg27
I1
sg28
I14
ssI15
(dp1013
g20
I-420
sg21
I-480
sg22
I-398
sg23
I-447
sg24
I132
sg8
g997
sg25
I13
sg12
I0
sg26
F330.0928235437468
sg27
I1
sg28
I15
ssI16
(dp1014
g20
I-540
sg21
I-360
sg22
I-507
sg23
I-349
sg24
I115
sg8
g997
sg25
I13
sg12
I0
sg26
F330.2594683402267
sg27
I1
sg28
I16
ssI17
(dp1015
g20
I-540
sg21
I-360
sg22
I-533
sg23
I-325
sg24
I115
sg8
g997
sg25
I13
sg12
I0
sg26
F330.42605991181426
sg27
I1
sg28
I17
ssI18
(dp1016
g20
I60
sg21
I240
sg22
I39
sg23
I206
sg24
I40
sg8
g997
sg25
I13
sg12
I1
sg26
F330.59272646689806
sg27
I2
sg28
I18
ssI19
(dp1017
g20
I60
sg21
I240
sg22
I52
sg23
I210
sg24
I40
sg8
g997
sg25
I13
sg12
I1
sg26
F330.84269868283445
sg27
I3
sg28
I19
ssI20
(dp1018
g20
I180
sg21
I360
sg22
I159
sg23
I355
sg24
I25
sg8
g997
sg25
I13
sg12
I2
sg26
F331.00927318228605
sg27
I2
sg28
I20
ssI21
(dp1019
g20
I180
sg21
I360
sg22
I164
sg23
I358
sg24
I25
sg8
g997
sg25
I13
sg12
I2
sg26
F331.25939268723414
sg27
I3
sg28
I21
ssI22
(dp1020
g20
I-60
sg21
I480
sg22
I-33
sg23
I448
sg24
I7
sg8
g997
sg25
I13
sg12
I2
sg26
F331.425983924074
sg27
I1
sg28
I22
ssI23
(dp1021
g20
I-60
sg21
I480
sg22
I-26
sg23
I450
sg24
I7
sg8
g997
sg25
I13
sg12
I2
sg26
F331.5841783482474
sg27
I1
sg28
I23
ssI24
(dp1022
g20
I-60
sg21
I480
sg22
I-22
sg23
I451
sg24
I7
sg8
g997
sg25
I13
sg12
I2
sg26
F331.750964743027
sg27
I1
sg28
I24
ssI25
(dp1023
g20
I420
sg21
I480
sg22
I380
sg23
I446
sg24
I11
sg8
g997
sg25
I13
sg12
I3
sg26
F331.9175914631287
sg27
I2
sg28
I25
ssI26
(dp1024
g20
I420
sg21
I480
sg22
I387
sg23
I451
sg24
I11
sg8
g997
sg25
I13
sg12
I3
sg26
F332.17585337244964
sg27
I3
sg28
I26
ssI27
(dp1025
g20
I420
sg21
I240
sg22
I435
sg23
I237
sg24
I43
sg8
g997
sg25
I13
sg12
I4
sg26
F332.34260026699485
sg27
I2
sg28
I27
ssI28
(dp1026
g20
I420
sg21
I240
sg22
I430
sg23
I228
sg24
I43
sg8
g997
sg25
I13
sg12
I4
sg26
F332.5925617710027
sg27
I3
sg28
I28
ssI29
(dp1027
g20
I300
sg21
I-120
sg22
I321
sg23
I-138
sg24
I90
sg8
g997
sg25
I13
sg12
I5
sg26
F332.7509406411891
sg27
I2
sg28
I29
ssI30
(dp1028
g20
I300
sg21
I-120
sg22
I318
sg23
I-138
sg24
I90
sg8
g997
sg25
I13
sg12
I5
sg26
F332.99239486577244
sg27
I3
sg28
I30
ssI31
(dp1029
g20
I300
sg21
I-120
sg22
I308
sg23
I-145
sg24
I90
sg8
g997
sg25
I13
sg12
I5
sg26
F333.15083767277974
sg27
I3
sg28
I31
ssI32
(dp1030
g20
I300
sg21
I-480
sg22
I323
sg23
I-427
sg24
I138
sg8
g997
sg25
I13
sg12
I6
sg26
F333.31741886718646
sg27
I2
sg28
I32
ssI33
(dp1031
g20
I300
sg21
I-480
sg22
I327
sg23
I-428
sg24
I138
sg8
g997
sg25
I13
sg12
I6
sg26
F333.5590977075135
sg27
I3
sg28
I33
ssI34
(dp1032
g20
I540
sg21
I-360
sg22
I585
sg23
I-403
sg24
I124
sg8
g997
sg25
I13
sg12
I6
sg26
F333.7257003257764
sg27
I0
sg28
I34
ssI35
(dp1033
g20
I540
sg21
I-360
sg22
I591
sg23
I-402
sg24
I124
sg8
g997
sg25
I13
sg12
I6
sg26
F333.8173070614366
sg27
I0
sg28
I35
ssI36
(dp1034
g20
I540
sg21
I-360
sg22
I597
sg23
I-401
sg24
I124
sg8
g997
sg25
I13
sg12
I6
sg26
F333.9088970597095
sg27
I0
sg28
I36
ssI37
(dp1035
g20
I540
sg21
I-360
sg22
I596
sg23
I-402
sg24
I124
sg8
g997
sg25
I13
sg12
I6
sg26
F333.992221131688
sg27
I0
sg28
I37
ssI38
(dp1036
g20
I540
sg21
I-360
sg22
I599
sg23
I-406
sg24
I124
sg8
g997
sg25
I13
sg12
I6
sg26
F334.07554152144166
sg27
I0
sg28
I38
ssI39
(dp1037
g20
I540
sg21
I-360
sg22
I600
sg23
I-404
sg24
I124
sg8
g997
sg25
I13
sg12
I6
sg26
F334.15899380181054
sg27
I0
sg28
I39
ssI40
(dp1038
g20
I540
sg21
I-480
sg22
I584
sg23
I-437
sg24
I140
sg8
g997
sg25
I13
sg12
I7
sg26
F334.2422515937342
sg27
I2
sg28
I40
ssI41
(dp1039
g20
I540
sg21
I-480
sg22
I534
sg23
I-481
sg24
I140
sg8
g997
sg25
I13
sg12
I7
sg26
F334.4839726122773
sg27
I3
sg28
I41
ssI42
(dp1040
g20
I660
sg21
I-360
sg22
I642
sg23
I-404
sg24
I125
sg8
g997
sg25
I13
sg12
I8
sg26
F334.65070879489485
sg27
I2
sg28
I42
ssI43
(dp1041
g20
I660
sg21
I-360
sg22
I652
sg23
I-375
sg24
I125
sg8
g997
sg25
I13
sg12
I8
sg26
F334.89218310434353
sg27
I3
sg28
I43
ssI44
(dp1042
g20
I660
sg21
I-360
sg22
I654
sg23
I-373
sg24
I125
sg8
g997
sg25
I13
sg12
I8
sg26
F335.0588362695171
sg27
I3
sg28
I44
ssI45
(dp1043
g20
I540
sg21
I-120
sg22
I573
sg23
I-150
sg24
I92
sg8
g997
sg25
I13
sg12
I9
sg26
F335.2254850829704
sg27
I2
sg28
I45
ssI46
(dp1044
g20
I540
sg21
I-120
sg22
I573
sg23
I-148
sg24
I92
sg8
g997
sg25
I13
sg12
I9
sg26
F335.4922161104723
sg27
I3
sg28
I46
ssI47
(dp1045
g20
I780
sg21
I-240
sg22
I768
sg23
I-213
sg24
I110
sg8
g997
sg25
I13
sg12
I9
sg26
F335.65883780935656
sg27
I0
sg28
I47
ssI48
(dp1046
g20
I780
sg21
I-240
sg22
I839
sg23
I-228
sg24
I110
sg8
g997
sg25
I13
sg12
I9
sg26
F335.7588316499987
sg27
I0
sg28
I48
ssI49
(dp1047
g20
I900
sg21
I-480
sg22
I854
sg23
I-482
sg24
I143
sg8
g997
sg25
I13
sg12
I10
sg26
F335.84207170029094
sg27
I2
sg28
I49
sssg151
I39
sg152
I1920
sg153
S'trial13.png'
p1048
sg155
VRightcluster 1->trial13.png
p1049
sg157
S'results\\P039\\trial_png\\trial13.png'
p1050
sg159
g160
sg305
I3
sg306
I16
sg307
(lp1051
I0
aI0
aI1
aI0
aI1
aI0
aI0
aI1
aI0
aI0
aI0
aI3
aI0
aI2
aI0
aI2
aI1
aI0
aI0
aI0
aI0
aI0
aI0
aI0
aI0
aI3
aI0
aI0
aI0
aI0
aI0
aI0
aI0
aI0
aI1
aI0
aI0
aI0
aI1
aI0
aI3
aI0
aI0
aI3
aI0
aI0
aI2
aI0
aI0
aI0
aI0
aI0
aI0
aI0
aI0
aI0
aI0
aI0
aI0
aI0
aI0
aI0
aI0
aI0
aI1
aI0
aI0
aI0
aI1
aI0
aI1
aI0
aI0
aI0
aI0
aI0
aI0
aI0
aI2
aI0
aI0
aI0
aI1
aI0
aI0
aI0
aI0
aI0
aI0
aI0
aI3
aI0
aI3
aI0
aI0
aI2
aI0
aI0
aI0
aI0
aI0
aI0
aI1
aI0
aI0
aI0
aI0
aI0
aI0
aI0
aI0
aI0
aI1
aI0
aI0
aI1
aI0
aI0
aI0
aI0
aI0
aI0
aI0
aI0
aI0
aI3
aI0
aI0
aI0
aI0
aI0
aI0
aI1
aI0
aI0
aI1
aI0
aI0
aI3
aI0
aI3
aI0
aI0
aI3
asg309
I9
sg310
I30
sg311
I1080
ssI14
(dp1052
g2
I14
sg3
g4
sg5
I2
sg6
g7
sg8
VRightcluster 2
p1053
sg10
g11
sg12
I10
sg13
g14
sg15
g16
sg17
(dp1054
I1
(dp1055
g20
I-60
sg21
I0
sg22
I-6
sg23
I4
sg24
I71
sg8
g1053
sg25
I14
sg12
I0
sg26
F340.1164868624892
sg27
I0
sg28
I1
ssI2
(dp1056
g20
I-180
sg21
I120
sg22
I-125
sg23
I135
sg24
I54
sg8
g1053
sg25
I14
sg12
I0
sg26
F340.20831988763166
sg27
I0
sg28
I2
ssI3
(dp1057
g20
I-180
sg21
I120
sg22
I-127
sg23
I137
sg24
I54
sg8
g1053
sg25
I14
sg12
I0
sg26
F340.2915013570673
sg27
I0
sg28
I3
ssI4
(dp1058
g20
I-180
sg21
I120
sg22
I-123
sg23
I138
sg24
I54
sg8
g1053
sg25
I14
sg12
I0
sg26
F340.3747849245674
sg27
I0
sg28
I4
ssI5
(dp1059
g20
I-180
sg21
I0
sg22
I-178
sg23
I44
sg24
I70
sg8
g1053
sg25
I14
sg12
I0
sg26
F340.46652890680707
sg27
I1
sg28
I5
ssI6
(dp1060
g20
I60
sg21
I0
sg22
I23
sg23
I16
sg24
I72
sg8
g1053
sg25
I14
sg12
I1
sg26
F340.6332617419466
sg27
I2
sg28
I6
ssI7
(dp1061
g20
I60
sg21
I0
sg22
I29
sg23
I19
sg24
I72
sg8
g1053
sg25
I14
sg12
I1
sg26
F340.88327211912747
sg27
I3
sg28
I7
ssI8
(dp1062
g20
I60
sg21
I0
sg22
I28
sg23
I13
sg24
I72
sg8
g1053
sg25
I14
sg12
I1
sg26
F341.04976360113596
sg27
I3
sg28
I8
ssI9
(dp1063
g20
I-60
sg21
I240
sg22
I-61
sg23
I237
sg24
I39
sg8
g1053
sg25
I14
sg12
I1
sg26
F341.21649141505895
sg27
I1
sg28
I9
ssI10
(dp1064
g20
I-60
sg21
I240
sg22
I-76
sg23
I247
sg24
I39
sg8
g1053
sg25
I14
sg12
I1
sg26
F341.3997333399384
sg27
I1
sg28
I10
ssI11
(dp1065
g20
I-60
sg21
I240
sg22
I-75
sg23
I254
sg24
I39
sg8
g1053
sg25
I14
sg12
I1
sg26
F341.55810718890825
sg27
I1
sg28
I11
ssI12
(dp1066
g20
I-300
sg21
I360
sg22
I-321
sg23
I324
sg24
I21
sg8
g1053
sg25
I14
sg12
I1
sg26
F341.7163799440568
sg27
I1
sg28
I12
ssI13
(dp1067
g20
I-300
sg21
I360
sg22
I-317
sg23
I320
sg24
I21
sg8
g1053
sg25
I14
sg12
I1
sg26
F341.8747939627574
sg27
I1
sg28
I13
ssI14
(dp1068
g20
I-420
sg21
I120
sg22
I-406
sg23
I158
sg24
I52
sg8
g1053
sg25
I14
sg12
I1
sg26
F342.03310923086974
sg27
I1
sg28
I14
ssI15
(dp1069
g20
I-420
sg21
I120
sg22
I-403
sg23
I152
sg24
I52
sg8
g1053
sg25
I14
sg12
I1
sg26
F342.19975168411565
sg27
I1
sg28
I15
ssI16
(dp1070
g20
I-180
sg21
I-120
sg22
I-152
sg23
I-175
sg24
I86
sg8
g1053
sg25
I14
sg12
I1
sg26
F342.3580174095614
sg27
I0
sg28
I16
ssI17
(dp1071
g20
I-180
sg21
I-120
sg22
I-153
sg23
I-171
sg24
I86
sg8
g1053
sg25
I14
sg12
I1
sg26
F342.44961678077107
sg27
I0
sg28
I17
ssI18
(dp1072
g20
I-180
sg21
I-120
sg22
I-151
sg23
I-173
sg24
I86
sg8
g1053
sg25
I14
sg12
I1
sg26
F342.5329365010284
sg27
I0
sg28
I18
ssI19
(dp1073
g20
I-180
sg21
I-120
sg22
I-152
sg23
I-172
sg24
I86
sg8
g1053
sg25
I14
sg12
I1
sg26
F342.62457135550085
sg27
I0
sg28
I19
ssI20
(dp1074
g20
I-180
sg21
I-120
sg22
I-148
sg23
I-176
sg24
I86
sg8
g1053
sg25
I14
sg12
I1
sg26
F342.70808589895114
sg27
I0
sg28
I20
ssI21
(dp1075
g20
I-180
sg21
I-240
sg22
I-156
sg23
I-222
sg24
I102
sg8
g1053
sg25
I14
sg12
I1
sg26
F342.79949848091474
sg27
I1
sg28
I21
ssI22
(dp1076
g20
I-180
sg21
I-240
sg22
I-151
sg23
I-220
sg24
I102
sg8
g1053
sg25
I14
sg12
I1
sg26
F342.9578422025861
sg27
I1
sg28
I22
ssI23
(dp1077
g20
I-180
sg21
I-240
sg22
I-151
sg23
I-219
sg24
I102
sg8
g1053
sg25
I14
sg12
I1
sg26
F343.1245331942564
sg27
I1
sg28
I23
ssI24
(dp1078
g20
I-60
sg21
I-480
sg22
I-51
sg23
I-426
sg24
I135
sg8
g1053
sg25
I14
sg12
I1
sg26
F343.28284277165767
sg27
I1
sg28
I24
ssI25
(dp1079
g20
I-60
sg21
I-480
sg22
I-56
sg23
I-430
sg24
I135
sg8
g1053
sg25
I14
sg12
I1
sg26
F343.44948991137244
sg27
I1
sg28
I25
ssI26
(dp1080
g20
I60
sg21
I-360
sg22
I119
sg23
I-406
sg24
I120
sg8
g1053
sg25
I14
sg12
I1
sg26
F343.6161491020057
sg27
I0
sg28
I26
ssI27
(dp1081
g20
I180
sg21
I-360
sg22
I213
sg23
I-343
sg24
I121
sg8
g1053
sg25
I14
sg12
I2
sg26
F343.69939517775765
sg27
I2
sg28
I27
ssI28
(dp1082
g20
I180
sg21
I-360
sg22
I218
sg23
I-339
sg24
I121
sg8
g1053
sg25
I14
sg12
I2
sg26
F343.94943836021775
sg27
I3
sg28
I28
ssI29
(dp1083
g20
I300
sg21
I0
sg22
I313
sg23
I20
sg24
I74
sg8
g1053
sg25
I14
sg12
I3
sg26
F344.116202326898
sg27
I2
sg28
I29
ssI30
(dp1084
g20
I300
sg21
I0
sg22
I308
sg23
I33
sg24
I74
sg8
g1053
sg25
I14
sg12
I3
sg26
F344.3577740479441
sg27
I3
sg28
I30
ssI31
(dp1085
g20
I180
sg21
I240
sg22
I204
sg23
I237
sg24
I41
sg8
g1053
sg25
I14
sg12
I4
sg26
F344.52440344602746
sg27
I2
sg28
I31
ssI32
(dp1086
g20
I180
sg21
I240
sg22
I189
sg23
I283
sg24
I41
sg8
g1053
sg25
I14
sg12
I4
sg26
F344.76604713783945
sg27
I3
sg28
I32
ssI33
(dp1087
g20
I180
sg21
I480
sg22
I185
sg23
I475
sg24
I9
sg8
g1053
sg25
I14
sg12
I5
sg26
F344.9326192940571
sg27
I2
sg28
I33
ssI34
(dp1088
g20
I180
sg21
I480
sg22
I189
sg23
I471
sg24
I9
sg8
g1053
sg25
I14
sg12
I5
sg26
F345.1742238203824
sg27
I3
sg28
I34
ssI35
(dp1089
g20
I420
sg21
I360
sg22
I430
sg23
I377
sg24
I27
sg8
g1053
sg25
I14
sg12
I6
sg26
F345.3409958210086
sg27
I2
sg28
I35
ssI36
(dp1090
g20
I420
sg21
I360
sg22
I433
sg23
I372
sg24
I27
sg8
g1053
sg25
I14
sg12
I6
sg26
F345.58261909320845
sg27
I3
sg28
I36
ssI37
(dp1091
g20
I540
sg21
I0
sg22
I559
sg23
I35
sg24
I76
sg8
g1053
sg25
I14
sg12
I7
sg26
F345.7408570345897
sg27
I2
sg28
I37
ssI38
(dp1092
g20
I540
sg21
I0
sg22
I553
sg23
I28
sg24
I76
sg8
g1053
sg25
I14
sg12
I7
sg26
F345.9825228197542
sg27
I3
sg28
I38
ssI39
(dp1093
g20
I420
sg21
I-240
sg22
I399
sg23
I-289
sg24
I107
sg8
g1053
sg25
I14
sg12
I8
sg26
F346.1409991015371
sg27
I2
sg28
I39
ssI40
(dp1094
g20
I420
sg21
I-240
sg22
I420
sg23
I-252
sg24
I107
sg8
g1053
sg25
I14
sg12
I8
sg26
F346.3825443775095
sg27
I3
sg28
I40
ssI41
(dp1095
g20
I420
sg21
I-240
sg22
I417
sg23
I-250
sg24
I107
sg8
g1053
sg25
I14
sg12
I8
sg26
F346.5491878349985
sg27
I3
sg28
I41
ssI42
(dp1096
g20
I420
sg21
I-480
sg22
I417
sg23
I-429
sg24
I139
sg8
g1053
sg25
I14
sg12
I9
sg26
F346.71593506429144
sg27
I2
sg28
I42
ssI43
(dp1097
g20
I420
sg21
I-480
sg22
I419
sg23
I-425
sg24
I139
sg8
g1053
sg25
I14
sg12
I9
sg26
F346.9574492087231
sg27
I3
sg28
I43
ssI44
(dp1098
g20
I660
sg21
I-360
sg22
I649
sg23
I-329
sg24
I125
sg8
g1053
sg25
I14
sg12
I10
sg26
F347.12405818719344
sg27
I2
sg28
I44
sssg151
I39
sg152
I1920
sg153
S'trial14.png'
p1099
sg155
VRightcluster 2->trial14.png
p1100
sg157
S'results\\P039\\trial_png\\trial14.png'
p1101
sg159
g160
sg305
I4
sg306
I16
sg307
(lp1102
I0
aI1
aI0
aI0
aI0
aI0
aI0
aI0
aI0
aI3
aI0
aI0
aI0
aI2
aI0
aI2
aI0
aI0
aI1
aI0
aI0
aI1
aI0
aI0
aI0
aI0
aI0
aI3
aI0
aI0
aI0
aI0
aI1
aI0
aI0
aI0
aI0
aI0
aI0
aI1
aI0
aI3
aI0
aI0
aI0
aI2
aI0
aI0
aI0
aI0
aI0
aI0
aI1
aI0
aI0
aI0
aI0
aI0
aI0
aI0
aI0
aI0
aI0
aI0
aI1
aI0
aI1
aI0
aI0
aI0
aI1
aI0
aI3
aI0
aI3
aI0
aI3
aI0
aI0
aI2
aI0
aI0
aI0
aI0
aI0
aI0
aI0
aI0
aI0
aI0
aI0
aI0
aI0
aI0
aI0
aI0
aI1
aI0
aI1
aI0
aI0
aI0
aI1
aI0
aI0
aI0
aI0
aI3
aI0
aI0
aI0
aI0
aI0
aI0
aI0
aI0
aI1
aI0
aI0
aI0
aI0
aI3
aI0
aI0
aI0
aI3
aI0
aI0
aI0
aI1
aI0
aI0
aI0
aI0
aI0
aI1
aI0
aI0
aI0
aI3
aI0
aI0
aI0
aI2
asg309
I9
sg310
I30
sg311
I1080
ssI15
(dp1103
g2
I15
sg3
g4
sg5
I2
sg6
g7
sg8
VRightcluster 4
p1104
sg10
g11
sg12
I10
sg13
g14
sg15
g16
sg17
(dp1105
I1
(dp1106
g20
I-60
sg21
I0
sg22
I-3
sg23
I2
sg24
I71
sg8
g1104
sg25
I15
sg12
I0
sg26
F353.59827825840057
sg27
I1
sg28
I1
ssI2
(dp1107
g20
I-60
sg21
I0
sg22
I-4
sg23
I0
sg24
I71
sg8
g1104
sg25
I15
sg12
I0
sg26
F353.7649066522408
sg27
I1
sg28
I2
ssI3
(dp1108
g20
I-60
sg21
I0
sg22
I-55
sg23
I4
sg24
I71
sg8
g1104
sg25
I15
sg12
I0
sg26
F353.9316133770553
sg27
I1
sg28
I3
ssI4
(dp1109
g20
I60
sg21
I120
sg22
I111
sg23
I96
sg24
I56
sg8
g1104
sg25
I15
sg12
I0
sg26
F354.0982544913104
sg27
I0
sg28
I4
ssI5
(dp1110
g20
I180
sg21
I120
sg22
I157
sg23
I121
sg24
I57
sg8
g1104
sg25
I15
sg12
I1
sg26
F354.19003395681193
sg27
I2
sg28
I5
ssI6
(dp1111
g20
I180
sg21
I120
sg22
I162
sg23
I119
sg24
I57
sg8
g1104
sg25
I15
sg12
I1
sg26
F354.4398525235292
sg27
I3
sg28
I6
ssI7
(dp1112
g20
I300
sg21
I0
sg22
I300
sg23
I32
sg24
I74
sg8
g1104
sg25
I15
sg12
I2
sg26
F354.6148750520533
sg27
I2
sg28
I7
ssI8
(dp1113
g20
I300
sg21
I0
sg22
I306
sg23
I30
sg24
I74
sg8
g1104
sg25
I15
sg12
I2
sg26
F354.8815059899762
sg27
I3
sg28
I8
ssI9
(dp1114
g20
I420
sg21
I-120
sg22
I435
sg23
I-96
sg24
I91
sg8
g1104
sg25
I15
sg12
I3
sg26
F355.0481397397807
sg27
I2
sg28
I9
ssI10
(dp1115
g20
I420
sg21
I-120
sg22
I434
sg23
I-103
sg24
I91
sg8
g1104
sg25
I15
sg12
I3
sg26
F355.30642106447067
sg27
I3
sg28
I10
ssI11
(dp1116
g20
I180
sg21
I-360
sg22
I165
sg23
I-330
sg24
I121
sg8
g1104
sg25
I15
sg12
I4
sg26
F355.4729815045166
sg27
I2
sg28
I11
ssI12
(dp1117
g20
I180
sg21
I-360
sg22
I165
sg23
I-329
sg24
I121
sg8
g1104
sg25
I15
sg12
I4
sg26
F355.74814348895507
sg27
I3
sg28
I12
ssI13
(dp1118
g20
I420
sg21
I-480
sg22
I455
sg23
I-473
sg24
I139
sg8
g1104
sg25
I15
sg12
I5
sg26
F355.91473037407377
sg27
I2
sg28
I13
ssI14
(dp1119
g20
I420
sg21
I-480
sg22
I462
sg23
I-478
sg24
I139
sg8
g1104
sg25
I15
sg12
I5
sg26
F356.1646322929819
sg27
I3
sg28
I14
ssI15
(dp1120
g20
I540
sg21
I-480
sg22
I534
sg23
I-480
sg24
I140
sg8
g1104
sg25
I15
sg12
I6
sg26
F356.33127072925436
sg27
I2
sg28
I15
ssI16
(dp1121
g20
I540
sg21
I-480
sg22
I533
sg23
I-478
sg24
I140
sg8
g1104
sg25
I15
sg12
I6
sg26
F356.5813266321293
sg27
I3
sg28
I16
ssI17
(dp1122
g20
I780
sg21
I-360
sg22
I782
sg23
I-357
sg24
I126
sg8
g1104
sg25
I15
sg12
I7
sg26
F356.7479148562388
sg27
I2
sg28
I17
ssI18
(dp1123
g20
I780
sg21
I-360
sg22
I784
sg23
I-365
sg24
I126
sg8
g1104
sg25
I15
sg12
I7
sg26
F356.9895451581415
sg27
I3
sg28
I18
ssI19
(dp1124
g20
I900
sg21
I-360
sg22
I886
sg23
I-364
sg24
I127
sg8
g1104
sg25
I15
sg12
I8
sg26
F357.1478714729301
sg27
I2
sg28
I19
ssI20
(dp1125
g20
I900
sg21
I-360
sg22
I891
sg23
I-351
sg24
I127
sg8
g1104
sg25
I15
sg12
I8
sg26
F357.39788486284033
sg27
I3
sg28
I20
ssI21
(dp1126
g20
I900
sg21
I0
sg22
I894
sg23
I-8
sg24
I79
sg8
g1104
sg25
I15
sg12
I9
sg26
F357.572897683679
sg27
I2
sg28
I21
ssI22
(dp1127
g20
I900
sg21
I0
sg22
I898
sg23
I-2
sg24
I79
sg8
g1104
sg25
I15
sg12
I9
sg26
F357.82276746680327
sg27
I3
sg28
I22
ssI23
(dp1128
g20
I660
sg21
I120
sg22
I711
sg23
I88
sg24
I61
sg8
g1104
sg25
I15
sg12
I10
sg26
F358.0062022063894
sg27
I2
sg28
I23
sssg151
I39
sg152
I1920
sg153
S'trial15.png'
p1129
sg155
VRightcluster 4->trial15.png
p1130
sg157
S'results\\P039\\trial_png\\trial15.png'
p1131
sg159
g160
sg305
I5
sg306
I16
sg307
(lp1132
I1
aI0
aI0
aI0
aI0
aI0
aI1
aI0
aI2
aI0
aI0
aI0
aI0
aI2
aI2
aI0
aI0
aI0
aI1
aI0
aI1
aI0
aI0
aI0
aI0
aI0
aI0
aI2
aI0
aI0
aI0
aI0
aI0
aI0
aI0
aI0
aI0
aI0
aI0
aI1
aI0
aI0
aI0
aI0
aI0
aI0
aI0
aI2
aI0
aI1
aI0
aI1
aI0
aI1
aI0
aI0
aI0
aI3
aI0
aI0
aI0
aI3
aI0
aI0
aI0
aI0
aI0
aI0
aI0
aI0
aI0
aI1
aI0
aI0
aI3
aI0
aI0
aI0
aI0
aI3
aI0
aI0
aI0
aI1
aI0
aI1
aI0
aI0
aI0
aI0
aI0
aI3
aI0
aI0
aI0
aI0
aI1
aI0
aI0
aI0
aI0
aI0
aI0
aI0
aI0
aI0
aI0
aI0
aI0
aI0
aI0
aI0
aI0
aI0
aI0
aI0
aI0
aI0
aI1
aI0
aI0
aI3
aI0
aI0
aI0
aI0
aI3
aI3
aI0
aI1
aI0
aI0
aI1
aI0
aI0
aI0
aI0
aI0
aI0
aI3
aI3
aI0
aI0
aI0
asg309
I9
sg310
I30
sg311
I1080
ssI16
(dp1133
g2
I16
sg3
g4
sg5
I2
sg6
g7
sg8
VLeftcluster 5
p1134
sg10
g11
sg12
I10
sg13
g14
sg15
g16
sg17
(dp1135
I1
(dp1136
g20
I-60
sg21
I120
sg22
I-44
sg23
I72
sg24
I55
sg8
g1134
sg25
I16
sg12
I0
sg26
F362.46386766216165
sg27
I0
sg28
I1
ssI2
(dp1137
g20
I-60
sg21
I120
sg22
I-55
sg23
I134
sg24
I55
sg8
g1134
sg25
I16
sg12
I0
sg26
F362.5472144969881
sg27
I0
sg28
I2
ssI3
(dp1138
g20
I-60
sg21
I120
sg22
I-50
sg23
I137
sg24
I55
sg8
g1134
sg25
I16
sg12
I0
sg26
F362.6387911053507
sg27
I0
sg28
I3
ssI4
(dp1139
g20
I-60
sg21
I240
sg22
I-37
sg23
I202
sg24
I39
sg8
g1134
sg25
I16
sg12
I1
sg26
F362.7221476478617
sg27
I2
sg28
I4
ssI5
(dp1140
g20
I-60
sg21
I240
sg22
I-50
sg23
I208
sg24
I39
sg8
g1134
sg25
I16
sg12
I1
sg26
F362.98061743553717
sg27
I3
sg28
I5
ssI6
(dp1141
g20
I60
sg21
I360
sg22
I16
sg23
I337
sg24
I24
sg8
g1134
sg25
I16
sg12
I1
sg26
F363.1471982951962
sg27
I1
sg28
I6
ssI7
(dp1142
g20
I60
sg21
I360
sg22
I18
sg23
I345
sg24
I24
sg8
g1134
sg25
I16
sg12
I1
sg26
F363.3138417526852
sg27
I1
sg28
I7
ssI8
(dp1143
g20
I60
sg21
I360
sg22
I24
sg23
I346
sg24
I24
sg8
g1134
sg25
I16
sg12
I1
sg26
F363.4804423624619
sg27
I1
sg28
I8
ssI9
(dp1144
g20
I180
sg21
I120
sg22
I157
sg23
I142
sg24
I57
sg8
g1134
sg25
I16
sg12
I1
sg26
F363.6470854852032
sg27
I1
sg28
I9
ssI10
(dp1145
g20
I180
sg21
I120
sg22
I159
sg23
I140
sg24
I57
sg8
g1134
sg25
I16
sg12
I1
sg26
F363.81377547263037
sg27
I1
sg28
I10
ssI11
(dp1146
g20
I60
sg21
I-120
sg22
I16
sg23
I-106
sg24
I88
sg8
g1134
sg25
I16
sg12
I1
sg26
F363.988767873856
sg27
I1
sg28
I11
ssI12
(dp1147
g20
I60
sg21
I-120
sg22
I16
sg23
I-104
sg24
I88
sg8
g1134
sg25
I16
sg12
I1
sg26
F364.15542505600297
sg27
I1
sg28
I12
ssI13
(dp1148
g20
I-180
sg21
I-120
sg22
I-176
sg23
I-122
sg24
I86
sg8
g1134
sg25
I16
sg12
I2
sg26
F364.3303019692539
sg27
I2
sg28
I13
ssI14
(dp1149
g20
I-180
sg21
I-120
sg22
I-180
sg23
I-126
sg24
I86
sg8
g1134
sg25
I16
sg12
I2
sg26
F364.57192155922803
sg27
I3
sg28
I14
ssI15
(dp1150
g20
I-180
sg21
I-120
sg22
I-179
sg23
I-129
sg24
I86
sg8
g1134
sg25
I16
sg12
I2
sg26
F364.7386704622595
sg27
I3
sg28
I15
ssI16
(dp1151
g20
I-180
sg21
I-360
sg22
I-186
sg23
I-304
sg24
I118
sg8
g1134
sg25
I16
sg12
I3
sg26
F364.9053775218217
sg27
I2
sg28
I16
ssI17
(dp1152
g20
I-180
sg21
I-360
sg22
I-182
sg23
I-317
sg24
I118
sg8
g1134
sg25
I16
sg12
I3
sg26
F365.1635423542939
sg27
I3
sg28
I17
ssI18
(dp1153
g20
I-420
sg21
I-360
sg22
I-420
sg23
I-337
sg24
I116
sg8
g1134
sg25
I16
sg12
I4
sg26
F365.3302731809472
sg27
I2
sg28
I18
ssI19
(dp1154
g20
I-420
sg21
I-360
sg22
I-422
sg23
I-335
sg24
I116
sg8
g1134
sg25
I16
sg12
I4
sg26
F365.58026246901863
sg27
I3
sg28
I19
ssI20
(dp1155
g20
I-660
sg21
I-240
sg22
I-623
sg23
I-294
sg24
I98
sg8
g1134
sg25
I16
sg12
I4
sg26
F365.75513871277417
sg27
I0
sg28
I20
ssI21
(dp1156
g20
I-660
sg21
I-240
sg22
I-625
sg23
I-296
sg24
I98
sg8
g1134
sg25
I16
sg12
I4
sg26
F365.8384172590586
sg27
I0
sg28
I21
ssI22
(dp1157
g20
I-660
sg21
I-240
sg22
I-630
sg23
I-296
sg24
I98
sg8
g1134
sg25
I16
sg12
I4
sg26
F365.92180158563315
sg27
I0
sg28
I22
ssI23
(dp1158
g20
I-660
sg21
I-240
sg22
I-635
sg23
I-298
sg24
I98
sg8
g1134
sg25
I16
sg12
I4
sg26
F366.005117288918
sg27
I0
sg28
I23
ssI24
(dp1159
g20
I-660
sg21
I-240
sg22
I-642
sg23
I-295
sg24
I98
sg8
g1134
sg25
I16
sg12
I4
sg26
F366.0968190929407
sg27
I0
sg28
I24
ssI25
(dp1160
g20
I-660
sg21
I-120
sg22
I-636
sg23
I-71
sg24
I82
sg8
g1134
sg25
I16
sg12
I5
sg26
F366.1802543011736
sg27
I2
sg28
I25
ssI26
(dp1161
g20
I-660
sg21
I-120
sg22
I-625
sg23
I-78
sg24
I82
sg8
g1134
sg25
I16
sg12
I5
sg26
F366.42175873792075
sg27
I3
sg28
I26
ssI27
(dp1162
g20
I-660
sg21
I-120
sg22
I-625
sg23
I-77
sg24
I82
sg8
g1134
sg25
I16
sg12
I5
sg26
F366.58850529771735
sg27
I3
sg28
I27
ssI28
(dp1163
g20
I-660
sg21
I-360
sg22
I-621
sg23
I-308
sg24
I114
sg8
g1134
sg25
I16
sg12
I6
sg26
F366.74682458280404
sg27
I2
sg28
I28
ssI29
(dp1164
g20
I-660
sg21
I-240
sg22
I-608
sg23
I-300
sg24
I98
sg8
g1134
sg25
I16
sg12
I6
sg26
F366.988371532515
sg27
I0
sg28
I29
ssI30
(dp1165
g20
I-660
sg21
I-360
sg22
I-605
sg23
I-302
sg24
I114
sg8
g1134
sg25
I16
sg12
I6
sg26
F367.0716500787994
sg27
I3
sg28
I30
ssI31
(dp1166
g20
I-780
sg21
I-360
sg22
I-823
sg23
I-388
sg24
I113
sg8
g1134
sg25
I16
sg12
I6
sg26
F367.23004869910346
sg27
I0
sg28
I31
ssI32
(dp1167
g20
I-780
sg21
I-360
sg22
I-823
sg23
I-393
sg24
I113
sg8
g1134
sg25
I16
sg12
I6
sg26
F367.313288414648
sg27
I0
sg28
I32
ssI33
(dp1168
g20
I-780
sg21
I-360
sg22
I-823
sg23
I-387
sg24
I113
sg8
g1134
sg25
I16
sg12
I6
sg26
F367.39662888926614
sg27
I0
sg28
I33
ssI34
(dp1169
g20
I-780
sg21
I-360
sg22
I-825
sg23
I-396
sg24
I113
sg8
g1134
sg25
I16
sg12
I6
sg26
F367.4798896939201
sg27
I0
sg28
I34
ssI35
(dp1170
g20
I-780
sg21
I-360
sg22
I-823
sg23
I-397
sg24
I113
sg8
g1134
sg25
I16
sg12
I6
sg26
F367.56323150752996
sg27
I0
sg28
I35
ssI36
(dp1171
g20
I-780
sg21
I-480
sg22
I-833
sg23
I-423
sg24
I129
sg8
g1134
sg25
I16
sg12
I6
sg26
F367.6466081349063
sg27
I0
sg28
I36
ssI37
(dp1172
g20
I-900
sg21
I-480
sg22
I-850
sg23
I-443
sg24
I128
sg8
g1134
sg25
I16
sg12
I7
sg26
F367.7299539654887
sg27
I2
sg28
I37
ssI38
(dp1173
g20
I-900
sg21
I120
sg22
I-872
sg23
I62
sg24
I48
sg8
g1134
sg25
I16
sg12
I7
sg26
F367.97148953377655
sg27
I0
sg28
I38
ssI39
(dp1174
g20
I-900
sg21
I0
sg22
I-873
sg23
I58
sg24
I64
sg8
g1134
sg25
I16
sg12
I8
sg26
F368.0631903335561
sg27
I2
sg28
I39
ssI40
(dp1175
g20
I-900
sg21
I0
sg22
I-878
sg23
I44
sg24
I64
sg8
g1134
sg25
I16
sg12
I8
sg26
F368.3048822290448
sg27
I3
sg28
I40
ssI41
(dp1176
g20
I-900
sg21
I0
sg22
I-872
sg23
I48
sg24
I64
sg8
g1134
sg25
I16
sg12
I8
sg26
F368.4715517968589
sg27
I3
sg28
I41
ssI42
(dp1177
g20
I-540
sg21
I120
sg22
I-481
sg23
I148
sg24
I51
sg8
g1134
sg25
I16
sg12
I9
sg26
F368.6381771779688
sg27
I2
sg28
I42
ssI43
(dp1178
g20
I-420
sg21
I120
sg22
I-475
sg23
I143
sg24
I52
sg8
g1134
sg25
I16
sg12
I9
sg26
F368.8881738304917
sg27
I0
sg28
I43
ssI44
(dp1179
g20
I-420
sg21
I120
sg22
I-472
sg23
I138
sg24
I52
sg8
g1134
sg25
I16
sg12
I9
sg26
F368.98814089131247
sg27
I0
sg28
I44
ssI45
(dp1180
g20
I-420
sg21
I120
sg22
I-474
sg23
I135
sg24
I52
sg8
g1134
sg25
I16
sg12
I9
sg26
F369.0797422710093
sg27
I0
sg28
I45
ssI46
(dp1181
g20
I-300
sg21
I120
sg22
I-289
sg23
I109
sg24
I53
sg8
g1134
sg25
I16
sg12
I10
sg26
F369.17976489995726
sg27
I2
sg28
I46
sssg151
I39
sg152
I1920
sg153
S'trial16.png'
p1182
sg155
VLeftcluster 5->trial16.png
p1183
sg157
S'results\\P039\\trial_png\\trial16.png'
p1184
sg159
g160
sg305
I6
sg306
I16
sg307
(lp1185
I2
aI0
aI0
aI0
aI0
aI0
aI2
aI0
aI0
aI0
aI1
aI0
aI1
aI0
aI0
aI1
aI0
aI0
aI2
aI0
aI2
aI0
aI0
aI0
aI1
aI0
aI0
aI0
aI0
aI0
aI0
aI0
aI2
aI0
aI0
aI0
aI0
aI0
aI0
aI3
aI0
aI0
aI0
aI0
aI0
aI1
aI0
aI1
aI0
aI0
aI0
aI3
aI0
aI3
aI0
aI0
aI0
aI1
aI0
aI1
aI0
aI0
aI0
aI0
aI3
aI0
aI0
aI0
aI0
aI0
aI0
aI0
aI0
aI0
aI0
aI0
aI0
aI1
aI0
aI0
aI0
aI0
aI3
aI0
aI0
aI0
aI3
aI0
aI1
aI0
aI0
aI0
aI0
aI0
aI0
aI0
aI0
aI0
aI0
aI0
aI0
aI0
aI0
aI0
aI0
aI0
aI1
aI0
aI0
aI0
aI1
aI0
aI0
aI0
aI3
aI0
aI3
aI0
aI3
aI0
aI0
aI0
aI0
aI0
aI1
aI0
aI0
aI0
aI3
aI0
aI0
aI0
aI0
aI0
aI0
aI0
aI0
aI1
aI0
aI0
aI0
aI0
aI1
aI0
asg309
I9
sg310
I30
sg311
I1080
ssI17
(dp1186
g2
I17
sg3
g4
sg5
I2
sg6
g7
sg8
VLeftcluster 2
p1187
sg10
g11
sg12
I10
sg13
g14
sg15
g16
sg17
(dp1188
I1
(dp1189
g20
I-60
sg21
I0
sg22
I-3
sg23
I1
sg24
I71
sg8
g1187
sg25
I17
sg12
I0
sg26
F375.47059609202097
sg27
I0
sg28
I1
ssI2
(dp1190
g20
I-60
sg21
I0
sg22
I-7
sg23
I6
sg24
I71
sg8
g1187
sg25
I17
sg12
I0
sg26
F375.55392351147657
sg27
I0
sg28
I2
ssI3
(dp1191
g20
I-60
sg21
I0
sg22
I-13
sg23
I10
sg24
I71
sg8
g1187
sg25
I17
sg12
I0
sg26
F375.6372489224468
sg27
I0
sg28
I3
ssI4
(dp1192
g20
I-60
sg21
I120
sg22
I-119
sg23
I136
sg24
I55
sg8
g1187
sg25
I17
sg12
I0
sg26
F375.72058939706585
sg27
I0
sg28
I4
ssI5
(dp1193
g20
I-180
sg21
I120
sg22
I-125
sg23
I138
sg24
I54
sg8
g1187
sg25
I17
sg12
I1
sg26
F375.8039365666391
sg27
I2
sg28
I5
ssI6
(dp1194
g20
I-180
sg21
I120
sg22
I-192
sg23
I141
sg24
I54
sg8
g1187
sg25
I17
sg12
I1
sg26
F376.05389874014327
sg27
I3
sg28
I6
ssI7
(dp1195
g20
I-300
sg21
I360
sg22
I-311
sg23
I308
sg24
I21
sg8
g1187
sg25
I17
sg12
I2
sg26
F376.2123117545998
sg27
I2
sg28
I7
ssI8
(dp1196
g20
I-300
sg21
I360
sg22
I-317
sg23
I356
sg24
I21
sg8
g1187
sg25
I17
sg12
I2
sg26
F376.462195262382
sg27
I3
sg28
I8
ssI9
(dp1197
g20
I-300
sg21
I360
sg22
I-325
sg23
I352
sg24
I21
sg8
g1187
sg25
I17
sg12
I2
sg26
F376.62063974312787
sg27
I3
sg28
I9
ssI10
(dp1198
g20
I-300
sg21
I-120
sg22
I-340
sg23
I-64
sg24
I85
sg8
g1187
sg25
I17
sg12
I3
sg26
F376.79552971154135
sg27
I2
sg28
I10
ssI11
(dp1199
g20
I-300
sg21
I-120
sg22
I-337
sg23
I-65
sg24
I85
sg8
g1187
sg25
I17
sg12
I3
sg26
F377.0372068781289
sg27
I3
sg28
I11
ssI12
(dp1200
g20
I-540
sg21
I240
sg22
I-532
sg23
I282
sg24
I35
sg8
g1187
sg25
I17
sg12
I4
sg26
F377.2038824714027
sg27
I2
sg28
I12
ssI13
(dp1201
g20
I-540
sg21
I360
sg22
I-537
sg23
I320
sg24
I19
sg8
g1187
sg25
I17
sg12
I4
sg26
F377.4538607127979
sg27
I0
sg28
I13
ssI14
(dp1202
g20
I-540
sg21
I360
sg22
I-535
sg23
I320
sg24
I19
sg8
g1187
sg25
I17
sg12
I4
sg26
F377.5453472740146
sg27
I0
sg28
I14
ssI15
(dp1203
g20
I-660
sg21
I480
sg22
I-646
sg23
I479
sg24
I2
sg8
g1187
sg25
I17
sg12
I5
sg26
F377.63709092150657
sg27
I2
sg28
I15
ssI16
(dp1204
g20
I-660
sg21
I480
sg22
I-645
sg23
I478
sg24
I2
sg8
g1187
sg25
I17
sg12
I5
sg26
F377.88705008228044
sg27
I3
sg28
I16
ssI17
(dp1205
g20
I-900
sg21
I360
sg22
I-885
sg23
I386
sg24
I16
sg8
g1187
sg25
I17
sg12
I6
sg26
F378.04537338433965
sg27
I2
sg28
I17
ssI18
(dp1206
g20
I-900
sg21
I360
sg22
I-881
sg23
I379
sg24
I16
sg8
g1187
sg25
I17
sg12
I6
sg26
F378.28704753819784
sg27
I3
sg28
I18
ssI19
(dp1207
g20
I-900
sg21
I0
sg22
I-909
sg23
I54
sg24
I64
sg8
g1187
sg25
I17
sg12
I7
sg26
F378.45370472034483
sg27
I2
sg28
I19
ssI20
(dp1208
g20
I-900
sg21
I0
sg22
I-865
sg23
I-14
sg24
I64
sg8
g1187
sg25
I17
sg12
I7
sg26
F378.6954123489786
sg27
I3
sg28
I20
ssI21
(dp1209
g20
I-900
sg21
I0
sg22
I-860
sg23
I-7
sg24
I64
sg8
g1187
sg25
I17
sg12
I7
sg26
F378.8539067071397
sg27
I3
sg28
I21
ssI22
(dp1210
g20
I-780
sg21
I-120
sg22
I-743
sg23
I-93
sg24
I81
sg8
g1187
sg25
I17
sg12
I8
sg26
F379.01186346040777
sg27
I2
sg28
I22
ssI23
(dp1211
g20
I-780
sg21
I-120
sg22
I-760
sg23
I-92
sg24
I81
sg8
g1187
sg25
I17
sg12
I8
sg26
F379.2538864214257
sg27
I3
sg28
I23
ssI24
(dp1212
g20
I-540
sg21
I-120
sg22
I-512
sg23
I-76
sg24
I83
sg8
g1187
sg25
I17
sg12
I9
sg26
F379.4203373989558
sg27
I2
sg28
I24
ssI25
(dp1213
g20
I-540
sg21
I-120
sg22
I-500
sg23
I-86
sg24
I83
sg8
g1187
sg25
I17
sg12
I9
sg26
F379.67018341498897
sg27
I3
sg28
I25
ssI26
(dp1214
g20
I-660
sg21
I-480
sg22
I-606
sg23
I-447
sg24
I130
sg8
g1187
sg25
I17
sg12
I10
sg26
F379.8367803425408
sg27
I2
sg28
I26
sssg151
I39
sg152
I1920
sg153
S'trial17.png'
p1215
sg155
VLeftcluster 2->trial17.png
p1216
sg157
S'results\\P039\\trial_png\\trial17.png'
p1217
sg159
g160
sg305
I7
sg306
I16
sg307
(lp1218
I0
aI0
aI3
aI0
aI0
aI0
aI0
aI2
aI0
aI1
aI0
aI0
aI0
aI0
aI0
aI0
aI3
aI0
aI0
aI0
aI0
aI3
aI0
aI0
aI0
aI0
aI0
aI0
aI1
aI0
aI0
aI1
aI0
aI0
aI0
aI3
aI0
aI0
aI0
aI0
aI0
aI0
aI1
aI0
aI0
aI0
aI0
aI0
aI0
aI0
aI0
aI0
aI0
aI0
aI3
aI0
aI1
aI0
aI0
aI1
aI0
aI0
aI1
aI0
aI3
aI0
aI0
aI0
aI0
aI0
aI0
aI0
aI0
aI0
aI0
aI0
aI0
aI0
aI0
aI0
aI0
aI3
aI0
aI3
aI0
aI3
aI0
aI2
aI0
aI0
aI0
aI0
aI0
aI0
aI0
aI0
aI0
aI0
aI0
aI0
aI0
aI0
aI0
aI0
aI0
aI1
aI0
aI1
aI0
aI1
aI0
aI1
aI0
aI0
aI0
aI0
aI0
aI0
aI0
aI0
aI0
aI0
aI0
aI0
aI0
aI0
aI0
aI0
aI2
aI0
aI3
aI0
aI2
aI0
aI0
aI2
aI0
aI1
aI0
aI1
aI0
aI1
aI0
aI1
asg309
I9
sg310
I30
sg311
I1080
ssI18
(dp1219
g2
I18
sg3
g4
sg5
I2
sg6
g7
sg8
VLeftcluster 3
p1220
sg10
g11
sg12
I10
sg13
g14
sg15
g16
sg17
(dp1221
I1
(dp1222
g20
I-60
sg21
I0
sg22
I-1
sg23
I-2
sg24
I71
sg8
g1220
sg25
I18
sg12
I0
sg26
F384.1529750371901
sg27
I0
sg28
I1
ssI2
(dp1223
g20
I-60
sg21
I0
sg22
I-2
sg23
I-1
sg24
I71
sg8
g1220
sg25
I18
sg12
I0
sg26
F384.252881508668
sg27
I0
sg28
I2
ssI3
(dp1224
g20
I60
sg21
I0
sg22
I3
sg23
I-3
sg24
I72
sg8
g1220
sg25
I18
sg12
I0
sg26
F384.3448079284335
sg27
I0
sg28
I3
ssI4
(dp1225
g20
I-60
sg21
I-120
sg22
I-43
sg23
I-103
sg24
I87
sg8
g1220
sg25
I18
sg12
I0
sg26
F384.4363430280746
sg27
I1
sg28
I4
ssI5
(dp1226
g20
I-60
sg21
I-120
sg22
I-48
sg23
I-113
sg24
I87
sg8
g1220
sg25
I18
sg12
I0
sg26
F384.60296305322026
sg27
I1
sg28
I5
ssI6
(dp1227
g20
I-60
sg21
I-120
sg22
I-52
sg23
I-112
sg24
I87
sg8
g1220
sg25
I18
sg12
I0
sg26
F384.76954893409584
sg27
I1
sg28
I6
ssI7
(dp1228
g20
I-60
sg21
I-360
sg22
I-62
sg23
I-301
sg24
I119
sg8
g1220
sg25
I18
sg12
I0
sg26
F384.9446444376299
sg27
I1
sg28
I7
ssI8
(dp1229
g20
I-420
sg21
I0
sg22
I-387
sg23
I27
sg24
I68
sg8
g1220
sg25
I18
sg12
I1
sg26
F385.11116470794605
sg27
I2
sg28
I8
ssI9
(dp1230
g20
I-420
sg21
I0
sg22
I-374
sg23
I32
sg24
I68
sg8
g1220
sg25
I18
sg12
I1
sg26
F385.3611539960175
sg27
I3
sg28
I9
ssI10
(dp1231
g20
I-420
sg21
I0
sg22
I-399
sg23
I30
sg24
I68
sg8
g1220
sg25
I18
sg12
I1
sg26
F385.52778506783943
sg27
I3
sg28
I10
ssI11
(dp1232
g20
I-300
sg21
I120
sg22
I-299
sg23
I124
sg24
I53
sg8
g1220
sg25
I18
sg12
I2
sg26
F385.69454100057465
sg27
I2
sg28
I11
ssI12
(dp1233
g20
I-300
sg21
I120
sg22
I-296
sg23
I123
sg24
I53
sg8
g1220
sg25
I18
sg12
I2
sg26
F385.94441212268885
sg27
I3
sg28
I12
ssI13
(dp1234
g20
I-420
sg21
I240
sg22
I-426
sg23
I245
sg24
I36
sg8
g1220
sg25
I18
sg12
I3
sg26
F386.11106595735873
sg27
I2
sg28
I13
ssI14
(dp1235
g20
I-420
sg21
I240
sg22
I-436
sg23
I249
sg24
I36
sg8
g1220
sg25
I18
sg12
I3
sg26
F386.3610716480698
sg27
I3
sg28
I14
ssI15
(dp1236
g20
I-300
sg21
I480
sg22
I-311
sg23
I467
sg24
I5
sg8
g1220
sg25
I18
sg12
I4
sg26
F386.5194250774266
sg27
I2
sg28
I15
ssI16
(dp1237
g20
I-300
sg21
I480
sg22
I-303
sg23
I470
sg24
I5
sg8
g1220
sg25
I18
sg12
I4
sg26
F386.7610232435445
sg27
I3
sg28
I16
ssI17
(dp1238
g20
I-660
sg21
I480
sg22
I-628
sg23
I455
sg24
I2
sg8
g1220
sg25
I18
sg12
I5
sg26
F386.91942387233485
sg27
I2
sg28
I17
ssI18
(dp1239
g20
I-660
sg21
I480
sg22
I-630
sg23
I459
sg24
I2
sg8
g1220
sg25
I18
sg12
I5
sg26
F387.1609343345417
sg27
I3
sg28
I18
ssI19
(dp1240
g20
I-660
sg21
I240
sg22
I-653
sg23
I242
sg24
I34
sg8
g1220
sg25
I18
sg12
I6
sg26
F387.3193858449904
sg27
I2
sg28
I19
ssI20
(dp1241
g20
I-660
sg21
I240
sg22
I-645
sg23
I242
sg24
I34
sg8
g1220
sg25
I18
sg12
I6
sg26
F387.56089028173665
sg27
I3
sg28
I20
ssI21
(dp1242
g20
I-660
sg21
I0
sg22
I-626
sg23
I-21
sg24
I66
sg8
g1220
sg25
I18
sg12
I7
sg26
F387.71925609676055
sg27
I2
sg28
I21
ssI22
(dp1243
g20
I-660
sg21
I0
sg22
I-619
sg23
I-35
sg24
I66
sg8
g1220
sg25
I18
sg12
I7
sg26
F387.96930597417577
sg27
I3
sg28
I22
ssI23
(dp1244
g20
I-660
sg21
I-240
sg22
I-620
sg23
I-207
sg24
I98
sg8
g1220
sg25
I18
sg12
I8
sg26
F388.1275104407823
sg27
I2
sg28
I23
ssI24
(dp1245
g20
I-540
sg21
I-240
sg22
I-596
sg23
I-238
sg24
I99
sg8
g1220
sg25
I18
sg12
I8
sg26
F388.377442486988
sg27
I0
sg28
I24
ssI25
(dp1246
g20
I-540
sg21
I-240
sg22
I-590
sg23
I-255
sg24
I99
sg8
g1220
sg25
I18
sg12
I8
sg26
F388.46917575730004
sg27
I0
sg28
I25
ssI137
(dp1247
g20
I-900
sg21
I-480
sg22
I-940
sg23
I-514
sg24
I128
sg8
g1220
sg25
I18
sg12
I8
sg26
F389.48570459715756
sg27
I0
sg28
I137
ssI138
(dp1248
g20
I-900
sg21
I-360
sg22
I-878
sg23
I-349
sg24
I112
sg8
g1220
sg25
I18
sg12
I9
sg26
F389.58562412379797
sg27
I2
sg28
I138
ssI139
(dp1249
g20
I-900
sg21
I-360
sg22
I-863
sg23
I-336
sg24
I112
sg8
g1220
sg25
I18
sg12
I9
sg26
F389.83567266222235
sg27
I3
sg28
I139
ssI140
(dp1250
g20
I-900
sg21
I-360
sg22
I-856
sg23
I-338
sg24
I112
sg8
g1220
sg25
I18
sg12
I9
sg26
F390.0107159451063
sg27
I3
sg28
I140
ssI141
(dp1251
g20
I-900
sg21
I-120
sg22
I-856
sg23
I-112
sg24
I80
sg8
g1220
sg25
I18
sg12
I10
sg26
F390.1855878371407
sg27
I2
sg28
I141
sssg151
I39
sg152
I1920
sg153
S'trial18.png'
p1252
sg155
VLeftcluster 3->trial18.png
p1253
sg157
S'results\\P039\\trial_png\\trial18.png'
p1254
sg159
g160
sg305
I8
sg306
I16
sg307
(lp1255
I2
aI0
aI3
aI0
aI0
aI3
aI0
aI0
aI1
aI0
aI0
aI0
aI0
aI0
aI0
aI1
aI0
aI0
aI0
aI0
aI0
aI0
aI0
aI0
aI0
aI0
aI0
aI0
aI1
aI0
aI0
aI0
aI0
aI0
aI3
aI0
aI3
aI0
aI0
aI2
aI0
aI0
aI1
aI0
aI0
aI0
aI0
aI1
aI2
aI0
aI0
aI0
aI0
aI3
aI0
aI0
aI0
aI0
aI0
aI0
aI0
aI1
aI0
aI0
aI0
aI0
aI3
aI0
aI3
aI0
aI0
aI0
aI0
aI1
aI0
aI0
aI0
aI0
aI0
aI0
aI3
aI0
aI0
aI0
aI0
aI0
aI0
aI1
aI0
aI0
aI0
aI0
aI1
aI0
aI1
aI0
aI0
aI0
aI3
aI0
aI0
aI0
aI0
aI0
aI0
aI0
aI1
aI0
aI0
aI0
aI0
aI0
aI3
aI0
aI0
aI0
aI0
aI2
aI0
aI1
aI0
aI0
aI0
aI0
aI0
aI0
aI0
aI0
aI0
aI0
aI0
aI2
aI0
aI0
aI0
aI0
aI0
aI0
aI1
aI0
aI1
aI0
aI0
aI1
asg309
I9
sg310
I30
sg311
I1080
ssI19
(dp1256
g2
I19
sg3
g4
sg5
I2
sg6
g7
sg8
VLeftcluster 1
p1257
sg10
g11
sg12
I10
sg13
g14
sg15
g16
sg17
(dp1258
I1
(dp1259
g20
I60
sg21
I0
sg22
I3
sg23
I0
sg24
I72
sg8
g1257
sg25
I19
sg12
I0
sg26
F394.01845631742617
sg27
I1
sg28
I1
ssI2
(dp1260
g20
I60
sg21
I0
sg22
I6
sg23
I-3
sg24
I72
sg8
g1257
sg25
I19
sg12
I0
sg26
F394.1767039664928
sg27
I1
sg28
I2
ssI3
(dp1261
g20
I-180
sg21
I0
sg22
I-147
sg23
I-2
sg24
I70
sg8
g1257
sg25
I19
sg12
I1
sg26
F394.34333403407163
sg27
I2
sg28
I3
ssI4
(dp1262
g20
I-180
sg21
I0
sg22
I-165
sg23
I-8
sg24
I70
sg8
g1257
sg25
I19
sg12
I1
sg26
F394.59339663190167
sg27
I3
sg28
I4
ssI5
(dp1263
g20
I-300
sg21
I240
sg22
I-324
sg23
I214
sg24
I37
sg8
g1257
sg25
I19
sg12
I2
sg26
F394.7684024230375
sg27
I2
sg28
I5
ssI6
(dp1264
g20
I-300
sg21
I240
sg22
I-327
sg23
I215
sg24
I37
sg8
g1257
sg25
I19
sg12
I2
sg26
F395.018392715353
sg27
I3
sg28
I6
ssI7
(dp1265
g20
I-180
sg21
I480
sg22
I-198
sg23
I468
sg24
I6
sg8
g1257
sg25
I19
sg12
I3
sg26
F395.185044206788
sg27
I2
sg28
I7
ssI8
(dp1266
g20
I-180
sg21
I480
sg22
I-201
sg23
I468
sg24
I6
sg8
g1257
sg25
I19
sg12
I3
sg26
F395.4350663001396
sg27
I3
sg28
I8
ssI9
(dp1267
g20
I-60
sg21
I240
sg22
I-72
sg23
I254
sg24
I39
sg8
g1257
sg25
I19
sg12
I4
sg26
F395.60176499100817
sg27
I2
sg28
I9
ssI10
(dp1268
g20
I-60
sg21
I240
sg22
I-66
sg23
I242
sg24
I39
sg8
g1257
sg25
I19
sg12
I4
sg26
F395.85152765485054
sg27
I3
sg28
I10
ssI11
(dp1269
g20
I-540
sg21
I360
sg22
I-549
sg23
I307
sg24
I19
sg8
g1257
sg25
I19
sg12
I5
sg26
F396.00986032984656
sg27
I2
sg28
I11
ssI12
(dp1270
g20
I-540
sg21
I360
sg22
I-548
sg23
I309
sg24
I19
sg8
g1257
sg25
I19
sg12
I5
sg26
F396.25158971708424
sg27
I3
sg28
I12
ssI13
(dp1271
g20
I-540
sg21
I0
sg22
I-533
sg23
I22
sg24
I67
sg8
g1257
sg25
I19
sg12
I6
sg26
F396.4097643911409
sg27
I2
sg28
I13
ssI14
(dp1272
g20
I-540
sg21
I0
sg22
I-530
sg23
I9
sg24
I67
sg8
g1257
sg25
I19
sg12
I6
sg26
F396.6514696765398
sg27
I3
sg28
I14
ssI15
(dp1273
g20
I-420
sg21
I-240
sg22
I-400
sg23
I-234
sg24
I100
sg8
g1257
sg25
I19
sg12
I7
sg26
F396.8097397537058
sg27
I2
sg28
I15
ssI16
(dp1274
g20
I-420
sg21
I-240
sg22
I-395
sg23
I-240
sg24
I100
sg8
g1257
sg25
I19
sg12
I7
sg26
F397.0515863026576
sg27
I3
sg28
I16
ssI17
(dp1275
g20
I-180
sg21
I-480
sg22
I-146
sg23
I-443
sg24
I134
sg8
g1257
sg25
I19
sg12
I8
sg26
F397.20982859576
sg27
I2
sg28
I17
ssI18
(dp1276
g20
I-180
sg21
I-480
sg22
I-148
sg23
I-453
sg24
I134
sg8
g1257
sg25
I19
sg12
I8
sg26
F397.4596936924145
sg27
I3
sg28
I18
ssI19
(dp1277
g20
I-420
sg21
I-360
sg22
I-443
sg23
I-417
sg24
I116
sg8
g1257
sg25
I19
sg12
I8
sg26
F397.62647908295185
sg27
I0
sg28
I19
ssI20
(dp1278
g20
I-420
sg21
I-360
sg22
I-437
sg23
I-406
sg24
I116
sg8
g1257
sg25
I19
sg12
I8
sg26
F397.72639526211424
sg27
I0
sg28
I20
ssI21
(dp1279
g20
I-660
sg21
I-480
sg22
I-659
sg23
I-458
sg24
I130
sg8
g1257
sg25
I19
sg12
I9
sg26
F397.8181047653352
sg27
I2
sg28
I21
ssI22
(dp1280
g20
I-660
sg21
I-480
sg22
I-666
sg23
I-463
sg24
I130
sg8
g1257
sg25
I19
sg12
I9
sg26
F398.0597608428143
sg27
I3
sg28
I22
ssI23
(dp1281
g20
I-660
sg21
I-480
sg22
I-650
sg23
I-473
sg24
I130
sg8
g1257
sg25
I19
sg12
I9
sg26
F398.23474253211225
sg27
I3
sg28
I23
ssI24
(dp1282
g20
I-420
sg21
I-480
sg22
I-400
sg23
I-470
sg24
I132
sg8
g1257
sg25
I19
sg12
I10
sg26
F398.4013836463673
sg27
I2
sg28
I24
sssg151
I39
sg152
I1920
sg153
S'trial19.png'
p1283
sg155
VLeftcluster 1->trial19.png
p1284
sg157
S'results\\P039\\trial_png\\trial19.png'
p1285
sg159
g160
sg305
I9
sg306
I16
sg307
(lp1286
I0
aI0
aI0
aI0
aI0
aI0
aI3
aI0
aI0
aI1
aI0
aI0
aI0
aI0
aI0
aI1
aI2
aI0
aI0
aI3
aI0
aI0
aI0
aI0
aI0
aI0
aI0
aI0
aI1
aI0
aI0
aI0
aI0
aI0
aI0
aI0
aI0
aI3
aI0
aI3
aI0
aI0
aI1
aI0
aI0
aI0
aI0
aI0
aI0
aI0
aI0
aI0
aI0
aI0
aI0
aI0
aI0
aI0
aI0
aI0
aI1
aI0
aI1
aI0
aI0
aI2
aI0
aI3
aI0
aI0
aI3
aI0
aI1
aI0
aI1
aI0
aI0
aI0
aI0
aI0
aI0
aI0
aI0
aI0
aI0
aI0
aI0
aI0
aI0
aI0
aI0
aI0
aI0
aI1
aI0
aI1
aI0
aI0
aI2
aI0
aI3
aI0
aI0
aI2
aI0
aI1
aI0
aI1
aI0
aI0
aI0
aI0
aI2
aI0
aI0
aI0
aI0
aI0
aI0
aI0
aI0
aI0
aI0
aI0
aI0
aI0
aI0
aI0
aI0
aI0
aI3
aI0
aI3
aI0
aI3
aI0
aI0
aI0
aI1
aI0
aI0
aI1
aI0
aI1
asg309
I9
sg310
I30
sg311
I1080
ssI20
(dp1287
g2
I20
sg3
g4
sg5
I2
sg6
g7
sg8
VLeftcluster 4
p1288
sg10
g11
sg12
I10
sg13
g14
sg15
g16
sg17
(dp1289
I1
(dp1290
g20
I60
sg21
I0
sg22
I9
sg23
I-1
sg24
I72
sg8
g1288
sg25
I20
sg12
I0
sg26
F402.3840992808273
sg27
I0
sg28
I1
ssI2
(dp1291
g20
I-180
sg21
I0
sg22
I-154
sg23
I10
sg24
I70
sg8
g1288
sg25
I20
sg12
I1
sg26
F402.46736644568864
sg27
I2
sg28
I2
ssI3
(dp1292
g20
I-180
sg21
I0
sg22
I-145
sg23
I7
sg24
I70
sg8
g1288
sg25
I20
sg12
I1
sg26
F402.70925015164084
sg27
I3
sg28
I3
ssI4
(dp1293
g20
I60
sg21
I-120
sg22
I54
sg23
I-107
sg24
I88
sg8
g1288
sg25
I20
sg12
I1
sg26
F402.8757473243613
sg27
I1
sg28
I4
ssI5
(dp1294
g20
I60
sg21
I-120
sg22
I54
sg23
I-105
sg24
I88
sg8
g1288
sg25
I20
sg12
I1
sg26
F403.04249154092395
sg27
I1
sg28
I5
ssI6
(dp1295
g20
I60
sg21
I-120
sg22
I59
sg23
I-108
sg24
I88
sg8
g1288
sg25
I20
sg12
I1
sg26
F403.2091139093045
sg27
I1
sg28
I6
ssI7
(dp1296
g20
I-300
sg21
I-240
sg22
I-290
sg23
I-263
sg24
I101
sg8
g1288
sg25
I20
sg12
I2
sg26
F403.37569945543237
sg27
I2
sg28
I7
ssI8
(dp1297
g20
I-300
sg21
I-240
sg22
I-285
sg23
I-235
sg24
I101
sg8
g1288
sg25
I20
sg12
I2
sg26
F403.62570849362146
sg27
I3
sg28
I8
ssI9
(dp1298
g20
I-300
sg21
I-240
sg22
I-281
sg23
I-239
sg24
I101
sg8
g1288
sg25
I20
sg12
I2
sg26
F403.79234994262424
sg27
I3
sg28
I9
ssI10
(dp1299
g20
I-540
sg21
I-240
sg22
I-500
sg23
I-208
sg24
I99
sg8
g1288
sg25
I20
sg12
I3
sg26
F403.9589324760218
sg27
I2
sg28
I10
ssI11
(dp1300
g20
I-540
sg21
I-240
sg22
I-495
sg23
I-208
sg24
I99
sg8
g1288
sg25
I20
sg12
I3
sg26
F404.20901047224834
sg27
I3
sg28
I11
ssI12
(dp1301
g20
I-300
sg21
I-480
sg22
I-264
sg23
I-453
sg24
I133
sg8
g1288
sg25
I20
sg12
I4
sg26
F404.3837990120919
sg27
I2
sg28
I12
ssI13
(dp1302
g20
I-300
sg21
I-480
sg22
I-254
sg23
I-453
sg24
I133
sg8
g1288
sg25
I20
sg12
I4
sg26
F404.6339088093555
sg27
I3
sg28
I13
ssI14
(dp1303
g20
I-300
sg21
I-480
sg22
I-310
sg23
I-454
sg24
I133
sg8
g1288
sg25
I20
sg12
I4
sg26
F404.80890857503255
sg27
I3
sg28
I14
ssI15
(dp1304
g20
I-660
sg21
I-480
sg22
I-630
sg23
I-425
sg24
I130
sg8
g1288
sg25
I20
sg12
I5
sg26
F404.98375268300333
sg27
I2
sg28
I15
ssI16
(dp1305
g20
I-660
sg21
I-480
sg22
I-627
sg23
I-437
sg24
I130
sg8
g1288
sg25
I20
sg12
I5
sg26
F405.22549813813293
sg27
I3
sg28
I16
ssI17
(dp1306
g20
I-780
sg21
I-480
sg22
I-826
sg23
I-445
sg24
I129
sg8
g1288
sg25
I20
sg12
I5
sg26
F405.39216268473047
sg27
I0
sg28
I17
ssI18
(dp1307
g20
I-780
sg21
I-480
sg22
I-832
sg23
I-449
sg24
I129
sg8
g1288
sg25
I20
sg12
I5
sg26
F405.4753916883474
sg27
I0
sg28
I18
ssI19
(dp1308
g20
I-780
sg21
I-480
sg22
I-829
sg23
I-449
sg24
I129
sg8
g1288
sg25
I20
sg12
I5
sg26
F405.55883526527396
sg27
I0
sg28
I19
ssI20
(dp1309
g20
I-780
sg21
I-480
sg22
I-828
sg23
I-446
sg24
I129
sg8
g1288
sg25
I20
sg12
I5
sg26
F405.6421509685588
sg27
I0
sg28
I20
ssI21
(dp1310
g20
I-780
sg21
I-480
sg22
I-825
sg23
I-454
sg24
I129
sg8
g1288
sg25
I20
sg12
I5
sg26
F405.7254978033852
sg27
I0
sg28
I21
ssI22
(dp1311
g20
I-780
sg21
I-480
sg22
I-830
sg23
I-463
sg24
I129
sg8
g1288
sg25
I20
sg12
I5
sg26
F405.808719107803
sg27
I0
sg28
I22
ssI23
(dp1312
g20
I-900
sg21
I-480
sg22
I-851
sg23
I-459
sg24
I128
sg8
g1288
sg25
I20
sg12
I6
sg26
F405.89214661683855
sg27
I2
sg28
I23
ssI24
(dp1313
g20
I-900
sg21
I-480
sg22
I-841
sg23
I-454
sg24
I128
sg8
g1288
sg25
I20
sg12
I6
sg26
F406.13376352883006
sg27
I3
sg28
I24
ssI25
(dp1314
g20
I-900
sg21
I-360
sg22
I-854
sg23
I-318
sg24
I112
sg8
g1288
sg25
I20
sg12
I6
sg26
F406.30042640168904
sg27
I0
sg28
I25
ssI26
(dp1315
g20
I-900
sg21
I-120
sg22
I-850
sg23
I-112
sg24
I80
sg8
g1288
sg25
I20
sg12
I7
sg26
F406.383786291678
sg27
I2
sg28
I26
ssI27
(dp1316
g20
I-900
sg21
I-120
sg22
I-845
sg23
I-118
sg24
I80
sg8
g1288
sg25
I20
sg12
I7
sg26
F406.633641680648
sg27
I3
sg28
I27
ssI28
(dp1317
g20
I-900
sg21
I-120
sg22
I-841
sg23
I-113
sg24
I80
sg8
g1288
sg25
I20
sg12
I7
sg26
F406.8003243036237
sg27
I3
sg28
I28
ssI29
(dp1318
g20
I-780
sg21
I120
sg22
I-742
sg23
I168
sg24
I49
sg8
g1288
sg25
I20
sg12
I8
sg26
F406.9668730274989
sg27
I2
sg28
I29
ssI30
(dp1319
g20
I-780
sg21
I120
sg22
I-744
sg23
I164
sg24
I49
sg8
g1288
sg25
I20
sg12
I8
sg26
F407.2085485203479
sg27
I3
sg28
I30
ssI31
(dp1320
g20
I-780
sg21
I120
sg22
I-740
sg23
I167
sg24
I49
sg8
g1288
sg25
I20
sg12
I8
sg26
F407.3751752404487
sg27
I3
sg28
I31
ssI32
(dp1321
g20
I-660
sg21
I240
sg22
I-634
sg23
I272
sg24
I34
sg8
g1288
sg25
I20
sg12
I8
sg26
F407.5418454777582
sg27
I0
sg28
I32
ssI33
(dp1322
g20
I-660
sg21
I360
sg22
I-625
sg23
I328
sg24
I18
sg8
g1288
sg25
I20
sg12
I9
sg26
F407.6336882105852
sg27
I2
sg28
I33
ssI34
(dp1323
g20
I-660
sg21
I360
sg22
I-620
sg23
I343
sg24
I18
sg8
g1288
sg25
I20
sg12
I9
sg26
F407.87524386373843
sg27
I3
sg28
I34
ssI35
(dp1324
g20
I-540
sg21
I360
sg22
I-571
sg23
I384
sg24
I19
sg8
g1288
sg25
I20
sg12
I9
sg26
F408.0418481557408
sg27
I0
sg28
I35
ssI36
(dp1325
g20
I-540
sg21
I480
sg22
I-507
sg23
I481
sg24
I3
sg8
g1288
sg25
I20
sg12
I10
sg26
F408.141813542823
sg27
I2
sg28
I36
sssg151
I39
sg152
I1920
sg153
S'trial20.png'
p1326
sg155
VLeftcluster 4->trial20.png
p1327
sg157
S'results\\P039\\trial_png\\trial20.png'
p1328
sg159
g160
sg305
I10
sg306
I16
sg307
(lp1329
I2
aI0
aI0
aI3
aI0
aI0
aI0
aI0
aI0
aI0
aI0
aI0
aI0
aI0
aI0
aI1
aI0
aI0
aI3
aI0
aI0
aI2
aI0
aI2
aI0
aI1
aI0
aI1
aI0
aI1
aI0
aI0
aI0
aI0
aI0
aI0
aI0
aI0
aI0
aI0
aI0
aI0
aI0
aI0
aI0
aI0
aI0
aI0
aI0
aI3
aI0
aI2
aI0
aI0
aI0
aI0
aI0
aI1
aI0
aI0
aI1
aI0
aI0
aI1
aI0
aI0
aI0
aI0
aI0
aI0
aI3
aI0
aI0
aI0
aI0
aI0
aI0
aI0
aI0
aI0
aI3
aI0
aI0
aI0
aI0
aI0
aI0
aI0
aI1
aI0
aI1
aI0
aI1
aI0
aI1
aI0
aI0
aI0
aI0
aI3
aI0
aI3
aI0
aI0
aI0
aI0
aI0
aI0
aI0
aI0
aI0
aI0
aI0
aI0
aI0
aI0
aI0
aI0
aI0
aI2
aI0
aI0
aI0
aI0
aI1
aI0
aI1
aI0
aI3
aI0
aI3
aI0
aI0
aI3
aI0
aI0
aI0
aI0
aI1
aI0
aI0
aI0
aI0
aI1
asg309
I9
sg310
I30
sg311
I1080
ss.